   1               		.file	"fat.c"
   2               	__SREG__ = 0x3f
   3               	__SP_H__ = 0x3e
   4               	__SP_L__ = 0x3d
   5               	__CCP__ = 0x34
   6               	__tmp_reg__ = 0
   7               	__zero_reg__ = 1
  15               	.Ltext0:
  16               		.section	.text.fat_get_next_cluster,"ax",@progbits
  18               	fat_get_next_cluster:
  19               	.LFB3:
  20               	.LSM0:
  21               	.LVL0:
  22 0000 8F92      		push r8
  23 0002 9F92      		push r9
  24 0004 AF92      		push r10
  25 0006 BF92      		push r11
  26 0008 CF92      		push r12
  27 000a DF92      		push r13
  28 000c EF92      		push r14
  29 000e FF92      		push r15
  30 0010 0F93      		push r16
  31 0012 1F93      		push r17
  32 0014 DF93      		push r29
  33 0016 CF93      		push r28
  34 0018 00D0      		rcall .
  35 001a 00D0      		rcall .
  36 001c 00D0      		rcall .
  37 001e CDB7      		in r28,__SP_L__
  38 0020 DEB7      		in r29,__SP_H__
  39               	/* prologue: function */
  40               	/* frame size = 6 */
  41               	/* stack size = 18 */
  42               	.L__stack_usage = 18
  43 0022 DC01      		movw r26,r24
  44               	.LSM1:
  45 0024 0097      		sbiw r24,0
  46 0026 01F4      		brne .+2
  47 0028 00C0      		rjmp .L37
  48               	.LSM2:
  49 002a 4230      		cpi r20,lo8(2)
  50 002c 5105      		cpc r21,__zero_reg__
  51 002e 6105      		cpc r22,__zero_reg__
  52 0030 7105      		cpc r23,__zero_reg__
  53 0032 00F4      		brsh .+2
  54 0034 00C0      		rjmp .L37
  55               	.LSM3:
  56 0036 ED91      		ld r30,X+
  57 0038 FC91      		ld r31,X
  58 003a 1197      		sbiw r26,1
  59 003c 2085      		ldd r18,Z+8
  60 003e 1A96      		adiw r26,10
  61 0040 DC90      		ld r13,X
  62 0042 1A97      		sbiw r26,10
  63 0044 1B96      		adiw r26,11
  64 0046 CC90      		ld r12,X
  65 0048 1B97      		sbiw r26,11
  66 004a 1C96      		adiw r26,12
  67 004c BC90      		ld r11,X
  68 004e 1C97      		sbiw r26,12
  69 0050 1D96      		adiw r26,13
  70 0052 AC90      		ld r10,X
  71 0054 1D97      		sbiw r26,13
  72 0056 1E96      		adiw r26,14
  73 0058 8C91      		ld r24,X
  74 005a 1E97      		sbiw r26,14
  75               	.LVL1:
  76 005c 1F96      		adiw r26,15
  77 005e EC90      		ld r14,X
  78 0060 1F97      		sbiw r26,15
  79 0062 5096      		adiw r26,16
  80 0064 FC90      		ld r15,X
  81 0066 5097      		sbiw r26,16
  82 0068 5196      		adiw r26,17
  83 006a 9C91      		ld r25,X
  84 006c 5197      		sbiw r26,17
  85 006e 2B30      		cpi r18,lo8(11)
  86 0070 01F0      		breq .+2
  87 0072 00C0      		rjmp .L3
  88               	.LBB6:
  89               	.LSM4:
  90 0074 8A01      		movw r16,r20
  91 0076 9B01      		movw r18,r22
  92 0078 B2E0      		ldi r27,2
  93 007a 000F      	1:	lsl r16
  94 007c 111F      		rol r17
  95 007e 221F      		rol r18
  96 0080 331F      		rol r19
  97 0082 BA95      		dec r27
  98 0084 01F4      		brne 1b
  99 0086 40E0      		ldi r20,lo8(0)
 100 0088 50E0      		ldi r21,hi8(0)
 101 008a BA01      		movw r22,r20
 102               	.LVL2:
 103 008c D00E      		add r13,r16
 104 008e B1E0      		ldi r27,lo8(1)
 105 0090 D016      		cp r13,r16
 106 0092 00F0      		brlo .L4
 107 0094 B0E0      		ldi r27,lo8(0)
 108               	.L4:
 109 0096 C10E      		add r12,r17
 110 0098 A1E0      		ldi r26,lo8(1)
 111               	.LVL3:
 112 009a C116      		cp r12,r17
 113 009c 00F0      		brlo .L5
 114 009e A0E0      		ldi r26,lo8(0)
 115               	.L5:
 116 00a0 8B2E      		mov r8,r27
 117 00a2 8C0C      		add r8,r12
 118 00a4 B1E0      		ldi r27,lo8(1)
 119 00a6 8C14      		cp r8,r12
 120 00a8 00F0      		brlo .L6
 121 00aa B0E0      		ldi r27,lo8(0)
 122               	.L6:
 123 00ac AB2B      		or r26,r27
 124 00ae B20E      		add r11,r18
 125 00b0 B1E0      		ldi r27,lo8(1)
 126 00b2 B216      		cp r11,r18
 127 00b4 00F0      		brlo .L7
 128 00b6 B0E0      		ldi r27,lo8(0)
 129               	.L7:
 130 00b8 9A2E      		mov r9,r26
 131 00ba 9B0C      		add r9,r11
 132 00bc A1E0      		ldi r26,lo8(1)
 133 00be 9B14      		cp r9,r11
 134 00c0 00F0      		brlo .L8
 135 00c2 A0E0      		ldi r26,lo8(0)
 136               	.L8:
 137 00c4 BA2B      		or r27,r26
 138 00c6 A30E      		add r10,r19
 139 00c8 A1E0      		ldi r26,lo8(1)
 140 00ca A316      		cp r10,r19
 141 00cc 00F0      		brlo .L9
 142 00ce A0E0      		ldi r26,lo8(0)
 143               	.L9:
 144 00d0 BB2E      		mov r11,r27
 145 00d2 BA0C      		add r11,r10
 146 00d4 B1E0      		ldi r27,lo8(1)
 147 00d6 BA14      		cp r11,r10
 148 00d8 00F0      		brlo .L10
 149 00da B0E0      		ldi r27,lo8(0)
 150               	.L10:
 151 00dc AB2B      		or r26,r27
 152 00de B1E0      		ldi r27,lo8(1)
 153 00e0 8417      		cp r24,r20
 154 00e2 00F0      		brlo .L11
 155 00e4 B0E0      		ldi r27,lo8(0)
 156               	.L11:
 157 00e6 CA2E      		mov r12,r26
 158 00e8 C80E      		add r12,r24
 159 00ea A1E0      		ldi r26,lo8(1)
 160 00ec C816      		cp r12,r24
 161 00ee 00F0      		brlo .L12
 162 00f0 A0E0      		ldi r26,lo8(0)
 163               	.L12:
 164 00f2 BA2B      		or r27,r26
 165 00f4 81E0      		ldi r24,lo8(1)
 166 00f6 E516      		cp r14,r21
 167 00f8 00F0      		brlo .L13
 168 00fa 80E0      		ldi r24,lo8(0)
 169               	.L13:
 170 00fc BE0D      		add r27,r14
 171 00fe A1E0      		ldi r26,lo8(1)
 172 0100 BE15      		cp r27,r14
 173 0102 00F0      		brlo .L14
 174 0104 A0E0      		ldi r26,lo8(0)
 175               	.L14:
 176 0106 8A2B      		or r24,r26
 177 0108 A1E0      		ldi r26,lo8(1)
 178 010a F616      		cp r15,r22
 179 010c 00F0      		brlo .L15
 180 010e A0E0      		ldi r26,lo8(0)
 181               	.L15:
 182 0110 8F0D      		add r24,r15
 183 0112 21E0      		ldi r18,lo8(1)
 184 0114 8F15      		cp r24,r15
 185 0116 00F0      		brlo .L16
 186 0118 20E0      		ldi r18,lo8(0)
 187               	.L16:
 188 011a A22B      		or r26,r18
 189 011c 0190      		ld __tmp_reg__,Z+
 190 011e F081      		ld r31,Z
 191 0120 E02D      		mov r30,__tmp_reg__
 192 0122 2D2D      		mov r18,r13
 193 0124 382D      		mov r19,r8
 194 0126 492D      		mov r20,r9
 195 0128 5B2D      		mov r21,r11
 196 012a 6C2D      		mov r22,r12
 197 012c 7B2F      		mov r23,r27
 198 012e 9A0F      		add r25,r26
 199 0130 8E01      		movw r16,r28
 200 0132 0D5F      		subi r16,lo8(-(3))
 201 0134 1F4F      		sbci r17,hi8(-(3))
 202 0136 A4E0      		ldi r26,lo8(4)
 203 0138 EA2E      		mov r14,r26
 204 013a F12C      		mov r15,__zero_reg__
 205 013c 0995      		icall
 206 013e 8823      		tst r24
 207 0140 01F4      		brne .+2
 208 0142 00C0      		rjmp .L37
 209               	.LVL4:
 210               	.LSM5:
 211 0144 2B81      		ldd r18,Y+3
 212 0146 3C81      		ldd r19,Y+4
 213 0148 4D81      		ldd r20,Y+5
 214 014a 5E81      		ldd r21,Y+6
 215               	.LVL5:
 216               	.LSM6:
 217 014c 2115      		cp r18,__zero_reg__
 218 014e 3105      		cpc r19,__zero_reg__
 219 0150 4105      		cpc r20,__zero_reg__
 220 0152 5105      		cpc r21,__zero_reg__
 221 0154 01F4      		brne .+2
 222 0156 00C0      		rjmp .L2
 223               	.LSM7:
 224 0158 273F      		cpi r18,lo8(268435447)
 225 015a 8FEF      		ldi r24,hi8(268435447)
 226 015c 3807      		cpc r19,r24
 227 015e 8FEF      		ldi r24,hlo8(268435447)
 228 0160 4807      		cpc r20,r24
 229 0162 8FE0      		ldi r24,hhi8(268435447)
 230 0164 5807      		cpc r21,r24
 231 0166 01F4      		brne .+2
 232 0168 00C0      		rjmp .L37
 233               	.LSM8:
 234 016a DA01      		movw r26,r20
 235 016c C901      		movw r24,r18
 236 016e 805F      		subi r24,lo8(-(-268435440))
 237 0170 9F4F      		sbci r25,hi8(-(-268435440))
 238 0172 AF4F      		sbci r26,hlo8(-(-268435440))
 239 0174 BF40      		sbci r27,hhi8(-(-268435440))
 240               	.LSM9:
 241 0176 8730      		cpi r24,lo8(7)
 242 0178 9105      		cpc r25,__zero_reg__
 243 017a A105      		cpc r26,__zero_reg__
 244 017c B105      		cpc r27,__zero_reg__
 245 017e 00F4      		brsh .+2
 246 0180 00C0      		rjmp .L37
 247               	.LSM10:
 248 0182 DA01      		movw r26,r20
 249 0184 C901      		movw r24,r18
 250 0186 885F      		subi r24,lo8(-(-268435448))
 251 0188 9F4F      		sbci r25,hi8(-(-268435448))
 252 018a AF4F      		sbci r26,hlo8(-(-268435448))
 253 018c BF40      		sbci r27,hhi8(-(-268435448))
 254 018e 00C0      		rjmp .L39
 255               	.LVL6:
 256               	.L3:
 257               	.LBE6:
 258               	.LBB7:
 259               	.LSM11:
 260 0190 8A01      		movw r16,r20
 261 0192 9B01      		movw r18,r22
 262 0194 000F      		lsl r16
 263 0196 111F      		rol r17
 264 0198 221F      		rol r18
 265 019a 331F      		rol r19
 266 019c 40E0      		ldi r20,lo8(0)
 267 019e 50E0      		ldi r21,hi8(0)
 268 01a0 BA01      		movw r22,r20
 269               	.LVL7:
 270 01a2 D00E      		add r13,r16
 271 01a4 B1E0      		ldi r27,lo8(1)
 272 01a6 D016      		cp r13,r16
 273 01a8 00F0      		brlo .L17
 274 01aa B0E0      		ldi r27,lo8(0)
 275               	.L17:
 276 01ac C10E      		add r12,r17
 277 01ae A1E0      		ldi r26,lo8(1)
 278               	.LVL8:
 279 01b0 C116      		cp r12,r17
 280 01b2 00F0      		brlo .L18
 281 01b4 A0E0      		ldi r26,lo8(0)
 282               	.L18:
 283 01b6 8B2E      		mov r8,r27
 284 01b8 8C0C      		add r8,r12
 285 01ba B1E0      		ldi r27,lo8(1)
 286 01bc 8C14      		cp r8,r12
 287 01be 00F0      		brlo .L19
 288 01c0 B0E0      		ldi r27,lo8(0)
 289               	.L19:
 290 01c2 AB2B      		or r26,r27
 291 01c4 B20E      		add r11,r18
 292 01c6 B1E0      		ldi r27,lo8(1)
 293 01c8 B216      		cp r11,r18
 294 01ca 00F0      		brlo .L20
 295 01cc B0E0      		ldi r27,lo8(0)
 296               	.L20:
 297 01ce 9A2E      		mov r9,r26
 298 01d0 9B0C      		add r9,r11
 299 01d2 A1E0      		ldi r26,lo8(1)
 300 01d4 9B14      		cp r9,r11
 301 01d6 00F0      		brlo .L21
 302 01d8 A0E0      		ldi r26,lo8(0)
 303               	.L21:
 304 01da BA2B      		or r27,r26
 305 01dc A30E      		add r10,r19
 306 01de A1E0      		ldi r26,lo8(1)
 307 01e0 A316      		cp r10,r19
 308 01e2 00F0      		brlo .L22
 309 01e4 A0E0      		ldi r26,lo8(0)
 310               	.L22:
 311 01e6 BB2E      		mov r11,r27
 312 01e8 BA0C      		add r11,r10
 313 01ea B1E0      		ldi r27,lo8(1)
 314 01ec BA14      		cp r11,r10
 315 01ee 00F0      		brlo .L23
 316 01f0 B0E0      		ldi r27,lo8(0)
 317               	.L23:
 318 01f2 AB2B      		or r26,r27
 319 01f4 B1E0      		ldi r27,lo8(1)
 320 01f6 8417      		cp r24,r20
 321 01f8 00F0      		brlo .L24
 322 01fa B0E0      		ldi r27,lo8(0)
 323               	.L24:
 324 01fc CA2E      		mov r12,r26
 325 01fe C80E      		add r12,r24
 326 0200 A1E0      		ldi r26,lo8(1)
 327 0202 C816      		cp r12,r24
 328 0204 00F0      		brlo .L25
 329 0206 A0E0      		ldi r26,lo8(0)
 330               	.L25:
 331 0208 BA2B      		or r27,r26
 332 020a 81E0      		ldi r24,lo8(1)
 333 020c E516      		cp r14,r21
 334 020e 00F0      		brlo .L26
 335 0210 80E0      		ldi r24,lo8(0)
 336               	.L26:
 337 0212 BE0D      		add r27,r14
 338 0214 A1E0      		ldi r26,lo8(1)
 339 0216 BE15      		cp r27,r14
 340 0218 00F0      		brlo .L27
 341 021a A0E0      		ldi r26,lo8(0)
 342               	.L27:
 343 021c 8A2B      		or r24,r26
 344 021e A1E0      		ldi r26,lo8(1)
 345 0220 F616      		cp r15,r22
 346 0222 00F0      		brlo .L28
 347 0224 A0E0      		ldi r26,lo8(0)
 348               	.L28:
 349 0226 8F0D      		add r24,r15
 350 0228 21E0      		ldi r18,lo8(1)
 351 022a 8F15      		cp r24,r15
 352 022c 00F0      		brlo .L29
 353 022e 20E0      		ldi r18,lo8(0)
 354               	.L29:
 355 0230 A22B      		or r26,r18
 356 0232 0190      		ld __tmp_reg__,Z+
 357 0234 F081      		ld r31,Z
 358 0236 E02D      		mov r30,__tmp_reg__
 359 0238 2D2D      		mov r18,r13
 360 023a 382D      		mov r19,r8
 361 023c 492D      		mov r20,r9
 362 023e 5B2D      		mov r21,r11
 363 0240 6C2D      		mov r22,r12
 364 0242 7B2F      		mov r23,r27
 365 0244 9A0F      		add r25,r26
 366 0246 8E01      		movw r16,r28
 367 0248 0F5F      		subi r16,lo8(-(1))
 368 024a 1F4F      		sbci r17,hi8(-(1))
 369 024c A2E0      		ldi r26,lo8(2)
 370 024e EA2E      		mov r14,r26
 371 0250 F12C      		mov r15,__zero_reg__
 372 0252 0995      		icall
 373 0254 8823      		tst r24
 374 0256 01F0      		breq .L37
 375               	.LVL9:
 376               	.LSM12:
 377 0258 2981      		ldd r18,Y+1
 378 025a 3A81      		ldd r19,Y+2
 379 025c 40E0      		ldi r20,lo8(0)
 380 025e 50E0      		ldi r21,hi8(0)
 381               	.LVL10:
 382               	.LSM13:
 383 0260 2115      		cp r18,__zero_reg__
 384 0262 3105      		cpc r19,__zero_reg__
 385 0264 4105      		cpc r20,__zero_reg__
 386 0266 5105      		cpc r21,__zero_reg__
 387 0268 01F0      		breq .L2
 388               	.LSM14:
 389 026a 273F      		cpi r18,lo8(65527)
 390 026c 8FEF      		ldi r24,hi8(65527)
 391 026e 3807      		cpc r19,r24
 392 0270 80E0      		ldi r24,hlo8(65527)
 393 0272 4807      		cpc r20,r24
 394 0274 80E0      		ldi r24,hhi8(65527)
 395 0276 5807      		cpc r21,r24
 396 0278 01F0      		breq .L37
 397               	.LSM15:
 398 027a DA01      		movw r26,r20
 399 027c C901      		movw r24,r18
 400 027e 805F      		subi r24,lo8(-(-65520))
 401 0280 9F4F      		sbci r25,hi8(-(-65520))
 402 0282 A040      		sbci r26,hlo8(-(-65520))
 403 0284 B040      		sbci r27,hhi8(-(-65520))
 404               	.LSM16:
 405 0286 8730      		cpi r24,lo8(7)
 406 0288 9105      		cpc r25,__zero_reg__
 407 028a A105      		cpc r26,__zero_reg__
 408 028c B105      		cpc r27,__zero_reg__
 409 028e 00F0      		brlo .L37
 410               	.LSM17:
 411 0290 DA01      		movw r26,r20
 412 0292 C901      		movw r24,r18
 413 0294 885F      		subi r24,lo8(-(-65528))
 414 0296 9F4F      		sbci r25,hi8(-(-65528))
 415 0298 A040      		sbci r26,hlo8(-(-65528))
 416 029a B040      		sbci r27,hhi8(-(-65528))
 417               	.LVL11:
 418               	.L39:
 419               	.LSM18:
 420 029c 8830      		cpi r24,lo8(8)
 421 029e 9105      		cpc r25,__zero_reg__
 422 02a0 A105      		cpc r26,__zero_reg__
 423 02a2 B105      		cpc r27,__zero_reg__
 424 02a4 00F4      		brsh .L2
 425               	.LVL12:
 426               	.L37:
 427               	.LSM19:
 428 02a6 20E0      		ldi r18,lo8(0)
 429 02a8 30E0      		ldi r19,hi8(0)
 430 02aa A901      		movw r20,r18
 431               	.L2:
 432               	.LBE7:
 433               	.LSM20:
 434 02ac B901      		movw r22,r18
 435 02ae CA01      		movw r24,r20
 436               	/* epilogue start */
 437 02b0 2696      		adiw r28,6
 438 02b2 0FB6      		in __tmp_reg__,__SREG__
 439 02b4 F894      		cli
 440 02b6 DEBF      		out __SP_H__,r29
 441 02b8 0FBE      		out __SREG__,__tmp_reg__
 442 02ba CDBF      		out __SP_L__,r28
 443 02bc CF91      		pop r28
 444 02be DF91      		pop r29
 445 02c0 1F91      		pop r17
 446 02c2 0F91      		pop r16
 447 02c4 FF90      		pop r15
 448 02c6 EF90      		pop r14
 449 02c8 DF90      		pop r13
 450 02ca CF90      		pop r12
 451 02cc BF90      		pop r11
 452 02ce AF90      		pop r10
 453 02d0 9F90      		pop r9
 454 02d2 8F90      		pop r8
 455 02d4 0895      		ret
 456               	.LFE3:
 458               		.section	.text.fat_free_clusters,"ax",@progbits
 460               	fat_free_clusters:
 461               	.LFB5:
 462               	.LSM21:
 463               	.LVL13:
 464 0000 2F92      		push r2
 465 0002 3F92      		push r3
 466 0004 4F92      		push r4
 467 0006 5F92      		push r5
 468 0008 6F92      		push r6
 469 000a 7F92      		push r7
 470 000c 8F92      		push r8
 471 000e 9F92      		push r9
 472 0010 AF92      		push r10
 473 0012 BF92      		push r11
 474 0014 CF92      		push r12
 475 0016 DF92      		push r13
 476 0018 EF92      		push r14
 477 001a FF92      		push r15
 478 001c 0F93      		push r16
 479 001e 1F93      		push r17
 480 0020 DF93      		push r29
 481 0022 CF93      		push r28
 482 0024 CDB7      		in r28,__SP_L__
 483 0026 DEB7      		in r29,__SP_H__
 484 0028 6097      		sbiw r28,16
 485 002a 0FB6      		in __tmp_reg__,__SREG__
 486 002c F894      		cli
 487 002e DEBF      		out __SP_H__,r29
 488 0030 0FBE      		out __SREG__,__tmp_reg__
 489 0032 CDBF      		out __SP_L__,r28
 490               	/* prologue: function */
 491               	/* frame size = 16 */
 492               	/* stack size = 34 */
 493               	.L__stack_usage = 34
 494 0034 6C01      		movw r12,r24
 495 0036 4A01      		movw r8,r20
 496 0038 5B01      		movw r10,r22
 497               	.LSM22:
 498 003a 0097      		sbiw r24,0
 499 003c 01F4      		brne .+2
 500 003e 00C0      		rjmp .L82
 501               	.LVL14:
 502               	.LSM23:
 503 0040 4230      		cpi r20,lo8(2)
 504 0042 5105      		cpc r21,__zero_reg__
 505 0044 6105      		cpc r22,__zero_reg__
 506 0046 7105      		cpc r23,__zero_reg__
 507 0048 00F4      		brsh .+2
 508 004a 00C0      		rjmp .L82
 509               	.LSM24:
 510 004c DC01      		movw r26,r24
 511 004e 1A96      		adiw r26,10
 512 0050 BC91      		ld r27,X
 513 0052 BC87      		std Y+12,r27
 514 0054 FC01      		movw r30,r24
 515 0056 F385      		ldd r31,Z+11
 516 0058 FD87      		std Y+13,r31
 517 005a DC01      		movw r26,r24
 518 005c 1C96      		adiw r26,12
 519 005e BC91      		ld r27,X
 520 0060 BE87      		std Y+14,r27
 521 0062 FC01      		movw r30,r24
 522 0064 F585      		ldd r31,Z+13
 523 0066 FF87      		std Y+15,r31
 524 0068 DC01      		movw r26,r24
 525 006a 1E96      		adiw r26,14
 526 006c BC91      		ld r27,X
 527 006e BF83      		std Y+7,r27
 528 0070 FC01      		movw r30,r24
 529 0072 F785      		ldd r31,Z+15
 530 0074 F887      		std Y+8,r31
 531 0076 DC01      		movw r26,r24
 532 0078 5096      		adiw r26,16
 533 007a BC91      		ld r27,X
 534 007c B987      		std Y+9,r27
 535 007e FC01      		movw r30,r24
 536 0080 F189      		ldd r31,Z+17
 537 0082 F88B      		std Y+16,r31
 538               	.LVL15:
 539               	.LSM25:
 540 0084 DC01      		movw r26,r24
 541 0086 ED91      		ld r30,X+
 542 0088 FC91      		ld r31,X
 543 008a 1197      		sbiw r26,1
 544 008c 8085      		ldd r24,Z+8
 545 008e 8B30      		cpi r24,lo8(11)
 546 0090 01F0      		breq .+2
 547 0092 00C0      		rjmp .L72
 548               	.LBB8:
 549               	.LBB9:
 550               	.LSM26:
 551 0094 3601      		movw r6,r12
 552               	.LVL16:
 553               	.L87:
 554 0096 12E0      		ldi r17,2
 555 0098 880C      	1:	lsl r8
 556 009a 991C      		rol r9
 557 009c AA1C      		rol r10
 558 009e BB1C      		rol r11
 559 00a0 1A95      		dec r17
 560 00a2 01F4      		brne 1b
 561               	.LVL17:
 562 00a4 CC24      		clr r12
 563 00a6 DD24      		clr r13
 564 00a8 7601      		movw r14,r12
 565 00aa 5C84      		ldd r5,Y+12
 566 00ac 580C      		add r5,r8
 567 00ae 21E0      		ldi r18,lo8(1)
 568 00b0 5814      		cp r5,r8
 569 00b2 00F0      		brlo .L43
 570 00b4 20E0      		ldi r18,lo8(0)
 571               	.L43:
 572 00b6 9D85      		ldd r25,Y+13
 573 00b8 990D      		add r25,r9
 574 00ba 81E0      		ldi r24,lo8(1)
 575 00bc 9915      		cp r25,r9
 576 00be 00F0      		brlo .L44
 577 00c0 80E0      		ldi r24,lo8(0)
 578               	.L44:
 579 00c2 422E      		mov r4,r18
 580 00c4 490E      		add r4,r25
 581 00c6 21E0      		ldi r18,lo8(1)
 582 00c8 4916      		cp r4,r25
 583 00ca 00F0      		brlo .L45
 584 00cc 20E0      		ldi r18,lo8(0)
 585               	.L45:
 586 00ce 822B      		or r24,r18
 587 00d0 2E85      		ldd r18,Y+14
 588 00d2 2A0D      		add r18,r10
 589 00d4 91E0      		ldi r25,lo8(1)
 590 00d6 2A15      		cp r18,r10
 591 00d8 00F0      		brlo .L46
 592 00da 90E0      		ldi r25,lo8(0)
 593               	.L46:
 594 00dc 382E      		mov r3,r24
 595 00de 320E      		add r3,r18
 596 00e0 81E0      		ldi r24,lo8(1)
 597 00e2 3216      		cp r3,r18
 598 00e4 00F0      		brlo .L47
 599 00e6 80E0      		ldi r24,lo8(0)
 600               	.L47:
 601 00e8 982B      		or r25,r24
 602 00ea 2F85      		ldd r18,Y+15
 603 00ec 2B0D      		add r18,r11
 604 00ee 81E0      		ldi r24,lo8(1)
 605 00f0 2B15      		cp r18,r11
 606 00f2 00F0      		brlo .L48
 607 00f4 80E0      		ldi r24,lo8(0)
 608               	.L48:
 609 00f6 292E      		mov r2,r25
 610 00f8 220E      		add r2,r18
 611 00fa 91E0      		ldi r25,lo8(1)
 612 00fc 2216      		cp r2,r18
 613 00fe 00F0      		brlo .L49
 614 0100 90E0      		ldi r25,lo8(0)
 615               	.L49:
 616 0102 892B      		or r24,r25
 617 0104 91E0      		ldi r25,lo8(1)
 618 0106 BF81      		ldd r27,Y+7
 619 0108 BC15      		cp r27,r12
 620 010a 00F0      		brlo .L50
 621 010c 90E0      		ldi r25,lo8(0)
 622               	.L50:
 623 010e EF81      		ldd r30,Y+7
 624 0110 E80F      		add r30,r24
 625 0112 EA87      		std Y+10,r30
 626 0114 81E0      		ldi r24,lo8(1)
 627 0116 FF81      		ldd r31,Y+7
 628 0118 EF17      		cp r30,r31
 629 011a 00F0      		brlo .L51
 630 011c 80E0      		ldi r24,lo8(0)
 631               	.L51:
 632 011e 982B      		or r25,r24
 633 0120 81E0      		ldi r24,lo8(1)
 634 0122 2885      		ldd r18,Y+8
 635 0124 2D15      		cp r18,r13
 636 0126 00F0      		brlo .L52
 637 0128 80E0      		ldi r24,lo8(0)
 638               	.L52:
 639 012a 3885      		ldd r19,Y+8
 640 012c 390F      		add r19,r25
 641 012e 3B87      		std Y+11,r19
 642 0130 91E0      		ldi r25,lo8(1)
 643 0132 A885      		ldd r26,Y+8
 644 0134 3A17      		cp r19,r26
 645 0136 00F0      		brlo .L53
 646 0138 90E0      		ldi r25,lo8(0)
 647               	.L53:
 648 013a 892B      		or r24,r25
 649 013c 91E0      		ldi r25,lo8(1)
 650 013e B985      		ldd r27,Y+9
 651 0140 BE15      		cp r27,r14
 652 0142 00F0      		brlo .L54
 653 0144 90E0      		ldi r25,lo8(0)
 654               	.L54:
 655 0146 C984      		ldd r12,Y+9
 656 0148 C80E      		add r12,r24
 657 014a 81E0      		ldi r24,lo8(1)
 658 014c E985      		ldd r30,Y+9
 659 014e CE16      		cp r12,r30
 660 0150 00F0      		brlo .L55
 661 0152 80E0      		ldi r24,lo8(0)
 662               	.L55:
 663 0154 D92E      		mov r13,r25
 664 0156 D82A      		or r13,r24
 665 0158 F889      		ldd r31,Y+16
 666 015a DF0E      		add r13,r31
 667 015c D301      		movw r26,r6
 668 015e ED91      		ld r30,X+
 669 0160 FC91      		ld r31,X
 670 0162 0190      		ld __tmp_reg__,Z+
 671 0164 F081      		ld r31,Z
 672 0166 E02D      		mov r30,__tmp_reg__
 673 0168 252D      		mov r18,r5
 674 016a 342D      		mov r19,r4
 675 016c 432D      		mov r20,r3
 676 016e 522D      		mov r21,r2
 677 0170 6A85      		ldd r22,Y+10
 678 0172 7B85      		ldd r23,Y+11
 679 0174 C601      		movw r24,r12
 680 0176 8E01      		movw r16,r28
 681 0178 0D5F      		subi r16,lo8(-(3))
 682 017a 1F4F      		sbci r17,hi8(-(3))
 683 017c B4E0      		ldi r27,lo8(4)
 684 017e EB2E      		mov r14,r27
 685 0180 F12C      		mov r15,__zero_reg__
 686 0182 0995      		icall
 687 0184 8823      		tst r24
 688 0186 01F4      		brne .+2
 689 0188 00C0      		rjmp .L82
 690               	.LSM27:
 691 018a 8B80      		ldd r8,Y+3
 692 018c 9C80      		ldd r9,Y+4
 693 018e AD80      		ldd r10,Y+5
 694 0190 BE80      		ldd r11,Y+6
 695               	.LVL18:
 696               	.LSM28:
 697 0192 8114      		cp r8,__zero_reg__
 698 0194 9104      		cpc r9,__zero_reg__
 699 0196 A104      		cpc r10,__zero_reg__
 700 0198 B104      		cpc r11,__zero_reg__
 701 019a 01F4      		brne .+2
 702 019c 00C0      		rjmp .L81
 703               	.LSM29:
 704 019e D501      		movw r26,r10
 705 01a0 C401      		movw r24,r8
 706 01a2 805F      		subi r24,lo8(-(-268435440))
 707 01a4 9F4F      		sbci r25,hi8(-(-268435440))
 708 01a6 AF4F      		sbci r26,hlo8(-(-268435440))
 709 01a8 BF40      		sbci r27,hhi8(-(-268435440))
 710 01aa 8830      		cpi r24,lo8(8)
 711 01ac 9105      		cpc r25,__zero_reg__
 712 01ae A105      		cpc r26,__zero_reg__
 713 01b0 B105      		cpc r27,__zero_reg__
 714 01b2 00F4      		brsh .+2
 715 01b4 00C0      		rjmp .L82
 716               	.LSM30:
 717 01b6 D501      		movw r26,r10
 718 01b8 C401      		movw r24,r8
 719 01ba 885F      		subi r24,lo8(-(-268435448))
 720 01bc 9F4F      		sbci r25,hi8(-(-268435448))
 721 01be AF4F      		sbci r26,hlo8(-(-268435448))
 722 01c0 BF40      		sbci r27,hhi8(-(-268435448))
 723 01c2 8830      		cpi r24,lo8(8)
 724 01c4 9105      		cpc r25,__zero_reg__
 725 01c6 A105      		cpc r26,__zero_reg__
 726 01c8 B105      		cpc r27,__zero_reg__
 727 01ca 00F4      		brsh .L56
 728               	.LSM31:
 729 01cc 8824      		clr r8
 730 01ce 9924      		clr r9
 731 01d0 5401      		movw r10,r8
 732               	.L56:
 733               	.LVL19:
 734               	.LSM32:
 735 01d2 1B82      		std Y+3,__zero_reg__
 736 01d4 1C82      		std Y+4,__zero_reg__
 737 01d6 1D82      		std Y+5,__zero_reg__
 738 01d8 1E82      		std Y+6,__zero_reg__
 739               	.LSM33:
 740 01da D301      		movw r26,r6
 741 01dc ED91      		ld r30,X+
 742 01de FC91      		ld r31,X
 743 01e0 0480      		ldd __tmp_reg__,Z+4
 744 01e2 F581      		ldd r31,Z+5
 745 01e4 E02D      		mov r30,__tmp_reg__
 746 01e6 252D      		mov r18,r5
 747 01e8 342D      		mov r19,r4
 748 01ea 432D      		mov r20,r3
 749 01ec 522D      		mov r21,r2
 750 01ee 6A85      		ldd r22,Y+10
 751 01f0 7B85      		ldd r23,Y+11
 752 01f2 C601      		movw r24,r12
 753 01f4 8E01      		movw r16,r28
 754 01f6 0D5F      		subi r16,lo8(-(3))
 755 01f8 1F4F      		sbci r17,hi8(-(3))
 756 01fa A4E0      		ldi r26,lo8(4)
 757 01fc EA2E      		mov r14,r26
 758 01fe F12C      		mov r15,__zero_reg__
 759 0200 0995      		icall
 760               	.LVL20:
 761               	.LBE9:
 762               	.LSM34:
 763 0202 8114      		cp r8,__zero_reg__
 764 0204 9104      		cpc r9,__zero_reg__
 765 0206 A104      		cpc r10,__zero_reg__
 766 0208 B104      		cpc r11,__zero_reg__
 767 020a 01F0      		breq .+2
 768 020c 00C0      		rjmp .L87
 769 020e 00C0      		rjmp .L81
 770               	.LVL21:
 771               	.L72:
 772               	.LBE8:
 773               	.LBB10:
 774               	.LBB11:
 775               	.LSM35:
 776 0210 9A01      		movw r18,r20
 777 0212 AB01      		movw r20,r22
 778 0214 5601      		movw r10,r12
 779               	.LVL22:
 780               	.L84:
 781 0216 220F      		lsl r18
 782 0218 331F      		rol r19
 783 021a 441F      		rol r20
 784 021c 551F      		rol r21
 785               	.LVL23:
 786 021e 60E0      		ldi r22,lo8(0)
 787 0220 70E0      		ldi r23,hi8(0)
 788 0222 CB01      		movw r24,r22
 789 0224 6C84      		ldd r6,Y+12
 790 0226 620E      		add r6,r18
 791 0228 A1E0      		ldi r26,lo8(1)
 792 022a 6216      		cp r6,r18
 793 022c 00F0      		brlo .L58
 794 022e A0E0      		ldi r26,lo8(0)
 795               	.L58:
 796 0230 FD85      		ldd r31,Y+13
 797 0232 F30F      		add r31,r19
 798 0234 E1E0      		ldi r30,lo8(1)
 799 0236 F317      		cp r31,r19
 800 0238 00F0      		brlo .L59
 801 023a E0E0      		ldi r30,lo8(0)
 802               	.L59:
 803 023c 5A2E      		mov r5,r26
 804 023e 5F0E      		add r5,r31
 805 0240 A1E0      		ldi r26,lo8(1)
 806 0242 5F16      		cp r5,r31
 807 0244 00F0      		brlo .L60
 808 0246 A0E0      		ldi r26,lo8(0)
 809               	.L60:
 810 0248 EA2B      		or r30,r26
 811 024a AE85      		ldd r26,Y+14
 812 024c A40F      		add r26,r20
 813 024e F1E0      		ldi r31,lo8(1)
 814 0250 A417      		cp r26,r20
 815 0252 00F0      		brlo .L61
 816 0254 F0E0      		ldi r31,lo8(0)
 817               	.L61:
 818 0256 4E2E      		mov r4,r30
 819 0258 4A0E      		add r4,r26
 820 025a E1E0      		ldi r30,lo8(1)
 821 025c 4A16      		cp r4,r26
 822 025e 00F0      		brlo .L62
 823 0260 E0E0      		ldi r30,lo8(0)
 824               	.L62:
 825 0262 FE2B      		or r31,r30
 826 0264 AF85      		ldd r26,Y+15
 827 0266 A50F      		add r26,r21
 828 0268 E1E0      		ldi r30,lo8(1)
 829 026a A517      		cp r26,r21
 830 026c 00F0      		brlo .L63
 831 026e E0E0      		ldi r30,lo8(0)
 832               	.L63:
 833 0270 3F2E      		mov r3,r31
 834 0272 3A0E      		add r3,r26
 835 0274 F1E0      		ldi r31,lo8(1)
 836 0276 3A16      		cp r3,r26
 837 0278 00F0      		brlo .L64
 838 027a F0E0      		ldi r31,lo8(0)
 839               	.L64:
 840 027c EF2B      		or r30,r31
 841 027e F1E0      		ldi r31,lo8(1)
 842 0280 BF81      		ldd r27,Y+7
 843 0282 B617      		cp r27,r22
 844 0284 00F0      		brlo .L65
 845 0286 F0E0      		ldi r31,lo8(0)
 846               	.L65:
 847 0288 2F80      		ldd r2,Y+7
 848 028a 2E0E      		add r2,r30
 849 028c E1E0      		ldi r30,lo8(1)
 850 028e AF81      		ldd r26,Y+7
 851 0290 2A16      		cp r2,r26
 852 0292 00F0      		brlo .L66
 853 0294 E0E0      		ldi r30,lo8(0)
 854               	.L66:
 855 0296 FE2B      		or r31,r30
 856 0298 E1E0      		ldi r30,lo8(1)
 857 029a B885      		ldd r27,Y+8
 858 029c B717      		cp r27,r23
 859 029e 00F0      		brlo .L67
 860 02a0 E0E0      		ldi r30,lo8(0)
 861               	.L67:
 862 02a2 D884      		ldd r13,Y+8
 863 02a4 DF0E      		add r13,r31
 864 02a6 F1E0      		ldi r31,lo8(1)
 865 02a8 A885      		ldd r26,Y+8
 866 02aa DA16      		cp r13,r26
 867 02ac 00F0      		brlo .L68
 868 02ae F0E0      		ldi r31,lo8(0)
 869               	.L68:
 870 02b0 EF2B      		or r30,r31
 871 02b2 F1E0      		ldi r31,lo8(1)
 872 02b4 B985      		ldd r27,Y+9
 873 02b6 B817      		cp r27,r24
 874 02b8 00F0      		brlo .L69
 875 02ba F0E0      		ldi r31,lo8(0)
 876               	.L69:
 877 02bc 7984      		ldd r7,Y+9
 878 02be 7E0E      		add r7,r30
 879 02c0 81E0      		ldi r24,lo8(1)
 880 02c2 E985      		ldd r30,Y+9
 881 02c4 7E16      		cp r7,r30
 882 02c6 00F0      		brlo .L70
 883 02c8 80E0      		ldi r24,lo8(0)
 884               	.L70:
 885 02ca CF2E      		mov r12,r31
 886 02cc C82A      		or r12,r24
 887 02ce F889      		ldd r31,Y+16
 888 02d0 CF0E      		add r12,r31
 889 02d2 D501      		movw r26,r10
 890 02d4 ED91      		ld r30,X+
 891 02d6 FC91      		ld r31,X
 892 02d8 0190      		ld __tmp_reg__,Z+
 893 02da F081      		ld r31,Z
 894 02dc E02D      		mov r30,__tmp_reg__
 895 02de 262D      		mov r18,r6
 896 02e0 352D      		mov r19,r5
 897 02e2 442D      		mov r20,r4
 898 02e4 532D      		mov r21,r3
 899 02e6 622D      		mov r22,r2
 900 02e8 7D2D      		mov r23,r13
 901 02ea 872D      		mov r24,r7
 902 02ec 9C2D      		mov r25,r12
 903 02ee 8E01      		movw r16,r28
 904 02f0 0F5F      		subi r16,lo8(-(1))
 905 02f2 1F4F      		sbci r17,hi8(-(1))
 906 02f4 B2E0      		ldi r27,lo8(2)
 907 02f6 EB2E      		mov r14,r27
 908 02f8 F12C      		mov r15,__zero_reg__
 909 02fa 0995      		icall
 910 02fc 8823      		tst r24
 911 02fe 01F0      		breq .L82
 912               	.LSM36:
 913 0300 8980      		ldd r8,Y+1
 914 0302 9A80      		ldd r9,Y+2
 915               	.LVL24:
 916               	.LSM37:
 917 0304 8114      		cp r8,__zero_reg__
 918 0306 9104      		cpc r9,__zero_reg__
 919 0308 01F0      		breq .L81
 920               	.LSM38:
 921 030a C401      		movw r24,r8
 922 030c 4096      		adiw r24,16
 923 030e 8830      		cpi r24,8
 924 0310 9105      		cpc r25,__zero_reg__
 925 0312 00F0      		brlo .L82
 926               	.LSM39:
 927 0314 B8EF      		ldi r27,lo8(-8)
 928 0316 8B16      		cp r8,r27
 929 0318 BFEF      		ldi r27,hi8(-8)
 930 031a 9B06      		cpc r9,r27
 931 031c 00F0      		brlo .L71
 932               	.LSM40:
 933 031e 8824      		clr r8
 934 0320 9924      		clr r9
 935               	.L71:
 936               	.LVL25:
 937               	.LSM41:
 938 0322 1A82      		std Y+2,__zero_reg__
 939 0324 1982      		std Y+1,__zero_reg__
 940               	.LSM42:
 941 0326 D501      		movw r26,r10
 942 0328 ED91      		ld r30,X+
 943 032a FC91      		ld r31,X
 944 032c 0480      		ldd __tmp_reg__,Z+4
 945 032e F581      		ldd r31,Z+5
 946 0330 E02D      		mov r30,__tmp_reg__
 947 0332 262D      		mov r18,r6
 948 0334 352D      		mov r19,r5
 949 0336 442D      		mov r20,r4
 950 0338 532D      		mov r21,r3
 951 033a 622D      		mov r22,r2
 952 033c 7D2D      		mov r23,r13
 953 033e 872D      		mov r24,r7
 954 0340 9C2D      		mov r25,r12
 955 0342 8E01      		movw r16,r28
 956 0344 0F5F      		subi r16,lo8(-(1))
 957 0346 1F4F      		sbci r17,hi8(-(1))
 958 0348 A2E0      		ldi r26,lo8(2)
 959 034a EA2E      		mov r14,r26
 960 034c F12C      		mov r15,__zero_reg__
 961 034e 0995      		icall
 962               	.LSM43:
 963 0350 9401      		movw r18,r8
 964 0352 40E0      		ldi r20,lo8(0)
 965 0354 50E0      		ldi r21,hi8(0)
 966               	.LVL26:
 967               	.LBE11:
 968               	.LSM44:
 969 0356 2115      		cp r18,__zero_reg__
 970 0358 3105      		cpc r19,__zero_reg__
 971 035a 4105      		cpc r20,__zero_reg__
 972 035c 5105      		cpc r21,__zero_reg__
 973 035e 01F0      		breq .+2
 974 0360 00C0      		rjmp .L84
 975               	.LVL27:
 976               	.L81:
 977               	.LBB12:
 978               	.LSM45:
 979 0362 81E0      		ldi r24,lo8(1)
 980 0364 00C0      		rjmp .L41
 981               	.LVL28:
 982               	.L82:
 983               	.LSM46:
 984 0366 80E0      		ldi r24,lo8(0)
 985               	.L41:
 986               	/* epilogue start */
 987               	.LBE12:
 988               	.LBE10:
 989               	.LSM47:
 990 0368 6096      		adiw r28,16
 991 036a 0FB6      		in __tmp_reg__,__SREG__
 992 036c F894      		cli
 993 036e DEBF      		out __SP_H__,r29
 994 0370 0FBE      		out __SREG__,__tmp_reg__
 995 0372 CDBF      		out __SP_L__,r28
 996 0374 CF91      		pop r28
 997 0376 DF91      		pop r29
 998 0378 1F91      		pop r17
 999 037a 0F91      		pop r16
 1000 037c FF90      		pop r15
 1001 037e EF90      		pop r14
 1002 0380 DF90      		pop r13
 1003 0382 CF90      		pop r12
 1004 0384 BF90      		pop r11
 1005 0386 AF90      		pop r10
 1006 0388 9F90      		pop r9
 1007 038a 8F90      		pop r8
 1008 038c 7F90      		pop r7
 1009 038e 6F90      		pop r6
 1010 0390 5F90      		pop r5
 1011 0392 4F90      		pop r4
 1012 0394 3F90      		pop r3
 1013 0396 2F90      		pop r2
 1014 0398 0895      		ret
 1015               	.LFE5:
 1017               		.section	.text.fat_append_clusters,"ax",@progbits
 1019               	fat_append_clusters:
 1020               	.LFB4:
 1021               	.LSM48:
 1022               	.LVL29:
 1023 0000 2F92      		push r2
 1024 0002 3F92      		push r3
 1025 0004 4F92      		push r4
 1026 0006 5F92      		push r5
 1027 0008 6F92      		push r6
 1028 000a 7F92      		push r7
 1029 000c 8F92      		push r8
 1030 000e 9F92      		push r9
 1031 0010 AF92      		push r10
 1032 0012 BF92      		push r11
 1033 0014 CF92      		push r12
 1034 0016 DF92      		push r13
 1035 0018 EF92      		push r14
 1036 001a FF92      		push r15
 1037 001c 0F93      		push r16
 1038 001e 1F93      		push r17
 1039 0020 DF93      		push r29
 1040 0022 CF93      		push r28
 1041 0024 CDB7      		in r28,__SP_L__
 1042 0026 DEB7      		in r29,__SP_H__
 1043 0028 A997      		sbiw r28,41
 1044 002a 0FB6      		in __tmp_reg__,__SREG__
 1045 002c F894      		cli
 1046 002e DEBF      		out __SP_H__,r29
 1047 0030 0FBE      		out __SREG__,__tmp_reg__
 1048 0032 CDBF      		out __SP_L__,r28
 1049               	/* prologue: function */
 1050               	/* frame size = 41 */
 1051               	/* stack size = 59 */
 1052               	.L__stack_usage = 59
 1053 0034 3C01      		movw r6,r24
 1054 0036 4CA3      		std Y+36,r20
 1055 0038 5DA3      		std Y+37,r21
 1056 003a 6EA3      		std Y+38,r22
 1057 003c 7FA3      		std Y+39,r23
 1058               	.LSM49:
 1059 003e 0097      		sbiw r24,0
 1060 0040 01F4      		brne .+2
 1061 0042 00C0      		rjmp .L163
 1062               	.LVL30:
 1063               	.LSM50:
 1064 0044 DC01      		movw r26,r24
 1065 0046 ED91      		ld r30,X+
 1066 0048 FC91      		ld r31,X
 1067 004a 1197      		sbiw r26,1
 1068 004c E080      		ld r14,Z
 1069 004e F180      		ldd r15,Z+1
 1070 0050 F9A6      		std Y+41,r15
 1071 0052 E8A6      		std Y+40,r14
 1072               	.LVL31:
 1073               	.LSM51:
 1074 0054 4481      		ldd r20,Z+4
 1075 0056 5581      		ldd r21,Z+5
 1076               	.LVL32:
 1077 0058 5F8B      		std Y+23,r21
 1078 005a 4E8B      		std Y+22,r20
 1079               	.LVL33:
 1080               	.LSM52:
 1081 005c 1A96      		adiw r26,10
 1082 005e 5C91      		ld r21,X
 1083 0060 1A97      		sbiw r26,10
 1084 0062 5C8F      		std Y+28,r21
 1085 0064 1B96      		adiw r26,11
 1086 0066 8C91      		ld r24,X
 1087 0068 1B97      		sbiw r26,11
 1088 006a 8D8F      		std Y+29,r24
 1089 006c 1C96      		adiw r26,12
 1090 006e 9C91      		ld r25,X
 1091 0070 1C97      		sbiw r26,12
 1092 0072 9E8F      		std Y+30,r25
 1093 0074 1D96      		adiw r26,13
 1094 0076 AC91      		ld r26,X
 1095 0078 AF8F      		std Y+31,r26
 1096 007a D301      		movw r26,r6
 1097 007c 1E96      		adiw r26,14
 1098 007e CC90      		ld r12,X
 1099 0080 1E97      		sbiw r26,14
 1100 0082 1F96      		adiw r26,15
 1101 0084 5C90      		ld r5,X
 1102 0086 1F97      		sbiw r26,15
 1103 0088 5096      		adiw r26,16
 1104 008a 4C90      		ld r4,X
 1105 008c 5097      		sbiw r26,16
 1106 008e 5196      		adiw r26,17
 1107 0090 BC91      		ld r27,X
 1108 0092 B8A3      		std Y+32,r27
 1109               	.LVL34:
 1110               	.LSM53:
 1111 0094 41E0      		ldi r20,lo8(1)
 1112 0096 4BA3      		std Y+35,r20
 1113 0098 8085      		ldd r24,Z+8
 1114 009a 8B30      		cpi r24,lo8(11)
 1115 009c 01F0      		breq .L165
 1116 009e 1BA2      		std Y+35,__zero_reg__
 1117               	.LSM54:
 1118 00a0 D301      		movw r26,r6
 1119 00a2 5296      		adiw r26,18
 1120 00a4 8D91      		ld r24,X+
 1121 00a6 9D91      		ld r25,X+
 1122 00a8 0D90      		ld __tmp_reg__,X+
 1123 00aa BC91      		ld r27,X
 1124 00ac A02D      		mov r26,__tmp_reg__
 1125 00ae B695      		lsr r27
 1126 00b0 A795      		ror r26
 1127 00b2 9795      		ror r25
 1128 00b4 8795      		ror r24
 1129 00b6 00C0      		rjmp .L170
 1130               	.L165:
 1131               	.LSM55:
 1132 00b8 D301      		movw r26,r6
 1133 00ba 5296      		adiw r26,18
 1134 00bc 8D91      		ld r24,X+
 1135 00be 9D91      		ld r25,X+
 1136 00c0 0D90      		ld __tmp_reg__,X+
 1137 00c2 BC91      		ld r27,X
 1138 00c4 A02D      		mov r26,__tmp_reg__
 1139 00c6 42E0      		ldi r20,2
 1140 00c8 B695      	1:	lsr r27
 1141 00ca A795      		ror r26
 1142 00cc 9795      		ror r25
 1143 00ce 8795      		ror r24
 1144 00d0 4A95      		dec r20
 1145 00d2 01F4      		brne 1b
 1146               	.L170:
 1147 00d4 8A87      		std Y+10,r24
 1148 00d6 9B87      		std Y+11,r25
 1149 00d8 AC87      		std Y+12,r26
 1150 00da BD87      		std Y+13,r27
 1151               	.LVL35:
 1152               	.LBB13:
 1153               	.LSM56:
 1154 00dc 802F      		mov r24,r16
 1155               	.LVL36:
 1156 00de 912F      		mov r25,r17
 1157 00e0 A22F      		mov r26,r18
 1158 00e2 B32F      		mov r27,r19
 1159 00e4 8A8B      		std Y+18,r24
 1160 00e6 9B8B      		std Y+19,r25
 1161 00e8 AC8B      		std Y+20,r26
 1162 00ea BD8B      		std Y+21,r27
 1163               	.LSM57:
 1164 00ec A4E0      		ldi r26,lo8(4)
 1165 00ee EA2E      		mov r14,r26
 1166 00f0 F12C      		mov r15,__zero_reg__
 1167 00f2 012D      		mov r16,__zero_reg__
 1168 00f4 112D      		mov r17,__zero_reg__
 1169 00f6 E88E      		std Y+24,r14
 1170 00f8 F98E      		std Y+25,r15
 1171 00fa 0A8F      		std Y+26,r16
 1172 00fc 1B8F      		std Y+27,r17
 1173 00fe 02E0      		ldi r16,lo8(2)
 1174 0100 10E0      		ldi r17,hi8(2)
 1175 0102 20E0      		ldi r18,hlo8(2)
 1176 0104 30E0      		ldi r19,hhi8(2)
 1177               	.LVL37:
 1178 0106 0E87      		std Y+14,r16
 1179 0108 1F87      		std Y+15,r17
 1180 010a 288B      		std Y+16,r18
 1181 010c 398B      		std Y+17,r19
 1182               	.LSM58:
 1183 010e 8824      		clr r8
 1184 0110 9924      		clr r9
 1185 0112 5401      		movw r10,r8
 1186 0114 7AA2      		std Y+34,r7
 1187 0116 69A2      		std Y+33,r6
 1188 0118 6C2C      		mov r6,r12
 1189               	.LVL38:
 1190               	.LSM59:
 1191 011a 00C0      		rjmp .L93
 1192               	.LVL39:
 1193               	.L131:
 1194               	.LSM60:
 1195 011c 1BA1      		ldd r17,Y+35
 1196 011e 1123      		tst r17
 1197 0120 01F4      		brne .+2
 1198 0122 00C0      		rjmp .L94
 1199               	.LSM61:
 1200 0124 288D      		ldd r18,Y+24
 1201 0126 398D      		ldd r19,Y+25
 1202 0128 4A8D      		ldd r20,Y+26
 1203 012a 5B8D      		ldd r21,Y+27
 1204 012c 220F      		lsl r18
 1205 012e 331F      		rol r19
 1206 0130 441F      		rol r20
 1207 0132 551F      		rol r21
 1208 0134 60E0      		ldi r22,lo8(0)
 1209 0136 70E0      		ldi r23,hi8(0)
 1210 0138 CB01      		movw r24,r22
 1211 013a 7C8C      		ldd r7,Y+28
 1212 013c 720E      		add r7,r18
 1213 013e A1E0      		ldi r26,lo8(1)
 1214 0140 7216      		cp r7,r18
 1215 0142 00F0      		brlo .L95
 1216 0144 A0E0      		ldi r26,lo8(0)
 1217               	.L95:
 1218 0146 FD8D      		ldd r31,Y+29
 1219 0148 F30F      		add r31,r19
 1220 014a E1E0      		ldi r30,lo8(1)
 1221 014c F317      		cp r31,r19
 1222 014e 00F0      		brlo .L96
 1223 0150 E0E0      		ldi r30,lo8(0)
 1224               	.L96:
 1225 0152 3A2E      		mov r3,r26
 1226 0154 3F0E      		add r3,r31
 1227 0156 A1E0      		ldi r26,lo8(1)
 1228 0158 3F16      		cp r3,r31
 1229 015a 00F0      		brlo .L97
 1230 015c A0E0      		ldi r26,lo8(0)
 1231               	.L97:
 1232 015e EA2B      		or r30,r26
 1233 0160 AE8D      		ldd r26,Y+30
 1234 0162 A40F      		add r26,r20
 1235 0164 F1E0      		ldi r31,lo8(1)
 1236 0166 A417      		cp r26,r20
 1237 0168 00F0      		brlo .L98
 1238 016a F0E0      		ldi r31,lo8(0)
 1239               	.L98:
 1240 016c 2E2E      		mov r2,r30
 1241 016e 2A0E      		add r2,r26
 1242 0170 E1E0      		ldi r30,lo8(1)
 1243 0172 2A16      		cp r2,r26
 1244 0174 00F0      		brlo .L99
 1245 0176 E0E0      		ldi r30,lo8(0)
 1246               	.L99:
 1247 0178 FE2B      		or r31,r30
 1248 017a AF8D      		ldd r26,Y+31
 1249 017c A50F      		add r26,r21
 1250 017e E1E0      		ldi r30,lo8(1)
 1251 0180 A517      		cp r26,r21
 1252 0182 00F0      		brlo .L100
 1253 0184 E0E0      		ldi r30,lo8(0)
 1254               	.L100:
 1255 0186 FA0F      		add r31,r26
 1256 0188 FF83      		std Y+7,r31
 1257 018a F1E0      		ldi r31,lo8(1)
 1258 018c BF81      		ldd r27,Y+7
 1259 018e BA17      		cp r27,r26
 1260 0190 00F0      		brlo .L101
 1261 0192 F0E0      		ldi r31,lo8(0)
 1262               	.L101:
 1263 0194 EF2B      		or r30,r31
 1264 0196 F1E0      		ldi r31,lo8(1)
 1265 0198 6616      		cp r6,r22
 1266 019a 00F0      		brlo .L102
 1267 019c F0E0      		ldi r31,lo8(0)
 1268               	.L102:
 1269 019e E60D      		add r30,r6
 1270 01a0 E887      		std Y+8,r30
 1271 01a2 E1E0      		ldi r30,lo8(1)
 1272 01a4 E884      		ldd r14,Y+8
 1273               	.LVL40:
 1274 01a6 E614      		cp r14,r6
 1275 01a8 00F0      		brlo .L103
 1276 01aa E0E0      		ldi r30,lo8(0)
 1277               	.L103:
 1278 01ac FE2B      		or r31,r30
 1279 01ae E1E0      		ldi r30,lo8(1)
 1280 01b0 5716      		cp r5,r23
 1281 01b2 00F0      		brlo .L104
 1282 01b4 E0E0      		ldi r30,lo8(0)
 1283               	.L104:
 1284 01b6 F50D      		add r31,r5
 1285 01b8 F987      		std Y+9,r31
 1286 01ba F1E0      		ldi r31,lo8(1)
 1287 01bc F984      		ldd r15,Y+9
 1288 01be F514      		cp r15,r5
 1289 01c0 00F0      		brlo .L105
 1290 01c2 F0E0      		ldi r31,lo8(0)
 1291               	.L105:
 1292 01c4 EF2B      		or r30,r31
 1293 01c6 F1E0      		ldi r31,lo8(1)
 1294 01c8 4816      		cp r4,r24
 1295 01ca 00F0      		brlo .L106
 1296 01cc F0E0      		ldi r31,lo8(0)
 1297               	.L106:
 1298 01ce CE2E      		mov r12,r30
 1299 01d0 C40C      		add r12,r4
 1300 01d2 81E0      		ldi r24,lo8(1)
 1301 01d4 C414      		cp r12,r4
 1302 01d6 00F0      		brlo .L107
 1303 01d8 80E0      		ldi r24,lo8(0)
 1304               	.L107:
 1305 01da DF2E      		mov r13,r31
 1306 01dc D82A      		or r13,r24
 1307 01de 08A1      		ldd r16,Y+32
 1308 01e0 D00E      		add r13,r16
 1309 01e2 272D      		mov r18,r7
 1310 01e4 332D      		mov r19,r3
 1311 01e6 422D      		mov r20,r2
 1312 01e8 5F81      		ldd r21,Y+7
 1313 01ea 6885      		ldd r22,Y+8
 1314 01ec 7985      		ldd r23,Y+9
 1315 01ee C601      		movw r24,r12
 1316 01f0 8E01      		movw r16,r28
 1317 01f2 0D5F      		subi r16,lo8(-(3))
 1318 01f4 1F4F      		sbci r17,hi8(-(3))
 1319 01f6 E4E0      		ldi r30,lo8(4)
 1320 01f8 EE2E      		mov r14,r30
 1321 01fa F12C      		mov r15,__zero_reg__
 1322 01fc A8A5      		ldd r26,Y+40
 1323 01fe B9A5      		ldd r27,Y+41
 1324 0200 FD01      		movw r30,r26
 1325 0202 0995      		icall
 1326 0204 8823      		tst r24
 1327 0206 01F0      		breq .+2
 1328 0208 00C0      		rjmp .L166
 1329 020a 00C0      		rjmp .L163
 1330               	.L94:
 1331               	.LSM62:
 1332 020c E88C      		ldd r14,Y+24
 1333 020e F98C      		ldd r15,Y+25
 1334 0210 0A8D      		ldd r16,Y+26
 1335 0212 1B8D      		ldd r17,Y+27
 1336 0214 A801      		movw r20,r16
 1337 0216 9701      		movw r18,r14
 1338 0218 60E0      		ldi r22,lo8(0)
 1339 021a 70E0      		ldi r23,hi8(0)
 1340 021c CB01      		movw r24,r22
 1341 021e CC8C      		ldd r12,Y+28
 1342 0220 CE0C      		add r12,r14
 1343 0222 A1E0      		ldi r26,lo8(1)
 1344 0224 CE14      		cp r12,r14
 1345 0226 00F0      		brlo .L109
 1346 0228 A0E0      		ldi r26,lo8(0)
 1347               	.L109:
 1348 022a ED8D      		ldd r30,Y+29
 1349 022c E30F      		add r30,r19
 1350 022e F1E0      		ldi r31,lo8(1)
 1351 0230 E317      		cp r30,r19
 1352 0232 00F0      		brlo .L110
 1353 0234 F0E0      		ldi r31,lo8(0)
 1354               	.L110:
 1355 0236 AE0F      		add r26,r30
 1356 0238 AF83      		std Y+7,r26
 1357 023a A1E0      		ldi r26,lo8(1)
 1358 023c FF80      		ldd r15,Y+7
 1359 023e FE16      		cp r15,r30
 1360 0240 00F0      		brlo .L111
 1361 0242 A0E0      		ldi r26,lo8(0)
 1362               	.L111:
 1363 0244 FA2B      		or r31,r26
 1364 0246 AE8D      		ldd r26,Y+30
 1365 0248 A40F      		add r26,r20
 1366 024a E1E0      		ldi r30,lo8(1)
 1367 024c A417      		cp r26,r20
 1368 024e 00F0      		brlo .L112
 1369 0250 E0E0      		ldi r30,lo8(0)
 1370               	.L112:
 1371 0252 FA0F      		add r31,r26
 1372 0254 F887      		std Y+8,r31
 1373 0256 F1E0      		ldi r31,lo8(1)
 1374 0258 0885      		ldd r16,Y+8
 1375 025a 0A17      		cp r16,r26
 1376 025c 00F0      		brlo .L113
 1377 025e F0E0      		ldi r31,lo8(0)
 1378               	.L113:
 1379 0260 EF2B      		or r30,r31
 1380 0262 FF8D      		ldd r31,Y+31
 1381 0264 F50F      		add r31,r21
 1382 0266 A1E0      		ldi r26,lo8(1)
 1383 0268 F517      		cp r31,r21
 1384 026a 00F0      		brlo .L114
 1385 026c A0E0      		ldi r26,lo8(0)
 1386               	.L114:
 1387 026e EF0F      		add r30,r31
 1388 0270 E987      		std Y+9,r30
 1389 0272 E1E0      		ldi r30,lo8(1)
 1390 0274 1985      		ldd r17,Y+9
 1391 0276 1F17      		cp r17,r31
 1392 0278 00F0      		brlo .L115
 1393 027a E0E0      		ldi r30,lo8(0)
 1394               	.L115:
 1395 027c AE2B      		or r26,r30
 1396 027e E62F      		mov r30,r22
 1397 0280 E60D      		add r30,r6
 1398 0282 F1E0      		ldi r31,lo8(1)
 1399 0284 E617      		cp r30,r22
 1400 0286 00F0      		brlo .L116
 1401 0288 F0E0      		ldi r31,lo8(0)
 1402               	.L116:
 1403 028a 7A2E      		mov r7,r26
 1404 028c 7E0E      		add r7,r30
 1405 028e A1E0      		ldi r26,lo8(1)
 1406 0290 7E16      		cp r7,r30
 1407 0292 00F0      		brlo .L117
 1408 0294 A0E0      		ldi r26,lo8(0)
 1409               	.L117:
 1410 0296 FA2B      		or r31,r26
 1411 0298 A72F      		mov r26,r23
 1412 029a A50D      		add r26,r5
 1413 029c E1E0      		ldi r30,lo8(1)
 1414 029e A717      		cp r26,r23
 1415 02a0 00F0      		brlo .L118
 1416 02a2 E0E0      		ldi r30,lo8(0)
 1417               	.L118:
 1418 02a4 2F2E      		mov r2,r31
 1419 02a6 2A0E      		add r2,r26
 1420 02a8 F1E0      		ldi r31,lo8(1)
 1421 02aa 2A16      		cp r2,r26
 1422 02ac 00F0      		brlo .L119
 1423 02ae F0E0      		ldi r31,lo8(0)
 1424               	.L119:
 1425 02b0 EF2B      		or r30,r31
 1426 02b2 F82F      		mov r31,r24
 1427 02b4 F40D      		add r31,r4
 1428 02b6 A1E0      		ldi r26,lo8(1)
 1429 02b8 F817      		cp r31,r24
 1430 02ba 00F0      		brlo .L120
 1431 02bc A0E0      		ldi r26,lo8(0)
 1432               	.L120:
 1433 02be 3E2E      		mov r3,r30
 1434 02c0 3F0E      		add r3,r31
 1435 02c2 E1E0      		ldi r30,lo8(1)
 1436 02c4 3F16      		cp r3,r31
 1437 02c6 00F0      		brlo .L121
 1438 02c8 E0E0      		ldi r30,lo8(0)
 1439               	.L121:
 1440 02ca DA2E      		mov r13,r26
 1441 02cc DE2A      		or r13,r30
 1442 02ce 88A1      		ldd r24,Y+32
 1443 02d0 890F      		add r24,r25
 1444 02d2 D80E      		add r13,r24
 1445 02d4 2C2D      		mov r18,r12
 1446 02d6 3F81      		ldd r19,Y+7
 1447 02d8 4885      		ldd r20,Y+8
 1448 02da 5985      		ldd r21,Y+9
 1449 02dc 672D      		mov r22,r7
 1450 02de 722D      		mov r23,r2
 1451 02e0 832D      		mov r24,r3
 1452 02e2 9D2D      		mov r25,r13
 1453 02e4 8E01      		movw r16,r28
 1454 02e6 0F5F      		subi r16,lo8(-(1))
 1455 02e8 1F4F      		sbci r17,hi8(-(1))
 1456 02ea B2E0      		ldi r27,lo8(2)
 1457 02ec EB2E      		mov r14,r27
 1458 02ee F12C      		mov r15,__zero_reg__
 1459 02f0 A8A5      		ldd r26,Y+40
 1460 02f2 B9A5      		ldd r27,Y+41
 1461 02f4 FD01      		movw r30,r26
 1462 02f6 0995      		icall
 1463 02f8 8823      		tst r24
 1464 02fa 01F0      		breq .+2
 1465 02fc 00C0      		rjmp .L167
 1466 02fe 00C0      		rjmp .L163
 1467               	.L166:
 1468               	.LSM63:
 1469 0300 8B81      		ldd r24,Y+3
 1470 0302 9C81      		ldd r25,Y+4
 1471 0304 AD81      		ldd r26,Y+5
 1472 0306 BE81      		ldd r27,Y+6
 1473 0308 0097      		sbiw r24,0
 1474 030a A105      		cpc r26,__zero_reg__
 1475 030c B105      		cpc r27,__zero_reg__
 1476 030e 01F0      		breq .+2
 1477 0310 00C0      		rjmp .L123
 1478               	.LSM64:
 1479 0312 8114      		cp r8,__zero_reg__
 1480 0314 9104      		cpc r9,__zero_reg__
 1481 0316 A104      		cpc r10,__zero_reg__
 1482 0318 B104      		cpc r11,__zero_reg__
 1483 031a 01F4      		brne .L124
 1484               	.LSM65:
 1485 031c AFEF      		ldi r26,lo8(268435455)
 1486 031e EA2E      		mov r14,r26
 1487 0320 AFEF      		ldi r26,hi8(268435455)
 1488 0322 FA2E      		mov r15,r26
 1489 0324 AFEF      		ldi r26,hlo8(268435455)
 1490 0326 0A2F      		mov r16,r26
 1491 0328 AFE0      		ldi r26,hhi8(268435455)
 1492 032a 1A2F      		mov r17,r26
 1493 032c EB82      		std Y+3,r14
 1494 032e FC82      		std Y+4,r15
 1495 0330 0D83      		std Y+5,r16
 1496 0332 1E83      		std Y+6,r17
 1497 0334 00C0      		rjmp .L125
 1498               	.L124:
 1499               	.LSM66:
 1500 0336 8B82      		std Y+3,r8
 1501 0338 9C82      		std Y+4,r9
 1502 033a AD82      		std Y+5,r10
 1503 033c BE82      		std Y+6,r11
 1504               	.L125:
 1505               	.LSM67:
 1506 033e 272D      		mov r18,r7
 1507 0340 332D      		mov r19,r3
 1508 0342 422D      		mov r20,r2
 1509 0344 5F81      		ldd r21,Y+7
 1510 0346 6885      		ldd r22,Y+8
 1511 0348 7985      		ldd r23,Y+9
 1512 034a C601      		movw r24,r12
 1513 034c 8E01      		movw r16,r28
 1514 034e 0D5F      		subi r16,lo8(-(3))
 1515 0350 1F4F      		sbci r17,hi8(-(3))
 1516 0352 F4E0      		ldi r31,lo8(4)
 1517 0354 EF2E      		mov r14,r31
 1518 0356 F12C      		mov r15,__zero_reg__
 1519 0358 00C0      		rjmp .L173
 1520               	.L174:
 1521               	.LSM68:
 1522 035a 8114      		cp r8,__zero_reg__
 1523 035c 9104      		cpc r9,__zero_reg__
 1524 035e A104      		cpc r10,__zero_reg__
 1525 0360 B104      		cpc r11,__zero_reg__
 1526 0362 01F4      		brne .L128
 1527               	.LSM69:
 1528 0364 EFEF      		ldi r30,lo8(-1)
 1529 0366 FFEF      		ldi r31,hi8(-1)
 1530 0368 FA83      		std Y+2,r31
 1531 036a E983      		std Y+1,r30
 1532 036c 00C0      		rjmp .L129
 1533               	.L128:
 1534               	.LSM70:
 1535 036e 9A82      		std Y+2,r9
 1536 0370 8982      		std Y+1,r8
 1537               	.L129:
 1538               	.LSM71:
 1539 0372 2C2D      		mov r18,r12
 1540 0374 3F81      		ldd r19,Y+7
 1541 0376 4885      		ldd r20,Y+8
 1542 0378 5985      		ldd r21,Y+9
 1543 037a 672D      		mov r22,r7
 1544 037c 722D      		mov r23,r2
 1545 037e 832D      		mov r24,r3
 1546 0380 9D2D      		mov r25,r13
 1547 0382 8E01      		movw r16,r28
 1548 0384 0F5F      		subi r16,lo8(-(1))
 1549 0386 1F4F      		sbci r17,hi8(-(1))
 1550 0388 E2E0      		ldi r30,lo8(2)
 1551 038a EE2E      		mov r14,r30
 1552 038c F12C      		mov r15,__zero_reg__
 1553               	.L173:
 1554 038e AE89      		ldd r26,Y+22
 1555 0390 BF89      		ldd r27,Y+23
 1556 0392 FD01      		movw r30,r26
 1557 0394 0995      		icall
 1558 0396 8823      		tst r24
 1559 0398 01F0      		breq .L169
 1560               	.LVL41:
 1561               	.LSM72:
 1562 039a 0A89      		ldd r16,Y+18
 1563 039c 1B89      		ldd r17,Y+19
 1564 039e 2C89      		ldd r18,Y+20
 1565 03a0 3D89      		ldd r19,Y+21
 1566 03a2 0150      		subi r16,lo8(-(-1))
 1567 03a4 1040      		sbci r17,hi8(-(-1))
 1568 03a6 2040      		sbci r18,hlo8(-(-1))
 1569 03a8 3040      		sbci r19,hhi8(-(-1))
 1570 03aa 0A8B      		std Y+18,r16
 1571 03ac 1B8B      		std Y+19,r17
 1572 03ae 2C8B      		std Y+20,r18
 1573 03b0 3D8B      		std Y+21,r19
 1574               	.LVL42:
 1575 03b2 0115      		cp r16,__zero_reg__
 1576 03b4 1105      		cpc r17,__zero_reg__
 1577 03b6 2105      		cpc r18,__zero_reg__
 1578 03b8 3105      		cpc r19,__zero_reg__
 1579 03ba 01F0      		breq .L164
 1580 03bc 8E84      		ldd r8,Y+14
 1581 03be 9F84      		ldd r9,Y+15
 1582 03c0 A888      		ldd r10,Y+16
 1583 03c2 B988      		ldd r11,Y+17
 1584               	.LVL43:
 1585               	.L123:
 1586               	.LSM73:
 1587 03c4 2E85      		ldd r18,Y+14
 1588 03c6 3F85      		ldd r19,Y+15
 1589 03c8 4889      		ldd r20,Y+16
 1590 03ca 5989      		ldd r21,Y+17
 1591 03cc 2F5F      		subi r18,lo8(-(1))
 1592 03ce 3F4F      		sbci r19,hi8(-(1))
 1593 03d0 4F4F      		sbci r20,hlo8(-(1))
 1594 03d2 5F4F      		sbci r21,hhi8(-(1))
 1595 03d4 2E87      		std Y+14,r18
 1596 03d6 3F87      		std Y+15,r19
 1597 03d8 488B      		std Y+16,r20
 1598 03da 598B      		std Y+17,r21
 1599               	.LVL44:
 1600 03dc 888D      		ldd r24,Y+24
 1601 03de 998D      		ldd r25,Y+25
 1602 03e0 AA8D      		ldd r26,Y+26
 1603 03e2 BB8D      		ldd r27,Y+27
 1604 03e4 0296      		adiw r24,2
 1605 03e6 A11D      		adc r26,__zero_reg__
 1606 03e8 B11D      		adc r27,__zero_reg__
 1607 03ea 888F      		std Y+24,r24
 1608 03ec 998F      		std Y+25,r25
 1609 03ee AA8F      		std Y+26,r26
 1610 03f0 BB8F      		std Y+27,r27
 1611               	.LVL45:
 1612               	.L93:
 1613               	.LSM74:
 1614 03f2 EE84      		ldd r14,Y+14
 1615 03f4 FF84      		ldd r15,Y+15
 1616 03f6 0889      		ldd r16,Y+16
 1617 03f8 1989      		ldd r17,Y+17
 1618 03fa 2A85      		ldd r18,Y+10
 1619 03fc 3B85      		ldd r19,Y+11
 1620 03fe 4C85      		ldd r20,Y+12
 1621 0400 5D85      		ldd r21,Y+13
 1622 0402 E216      		cp r14,r18
 1623 0404 F306      		cpc r15,r19
 1624 0406 0407      		cpc r16,r20
 1625 0408 1507      		cpc r17,r21
 1626 040a 00F4      		brsh .+2
 1627 040c 00C0      		rjmp .L131
 1628               	.L169:
 1629 040e C62C      		mov r12,r6
 1630 0410 69A0      		ldd r6,Y+33
 1631 0412 7AA0      		ldd r7,Y+34
 1632               	.LVL46:
 1633               	.LBE13:
 1634               	.LSM75:
 1635 0414 8A89      		ldd r24,Y+18
 1636 0416 9B89      		ldd r25,Y+19
 1637 0418 AC89      		ldd r26,Y+20
 1638 041a BD89      		ldd r27,Y+21
 1639 041c 0097      		sbiw r24,0
 1640 041e A105      		cpc r26,__zero_reg__
 1641 0420 B105      		cpc r27,__zero_reg__
 1642 0422 01F0      		breq .L130
 1643 0424 00C0      		rjmp .L132
 1644               	.LVL47:
 1645               	.L164:
 1646 0426 C62C      		mov r12,r6
 1647 0428 69A0      		ldd r6,Y+33
 1648 042a 7AA0      		ldd r7,Y+34
 1649               	.LVL48:
 1650               	.LBB14:
 1651               	.LSM76:
 1652 042c 8E84      		ldd r8,Y+14
 1653 042e 9F84      		ldd r9,Y+15
 1654 0430 A888      		ldd r10,Y+16
 1655 0432 B988      		ldd r11,Y+17
 1656               	.LVL49:
 1657               	.L130:
 1658               	.LBE14:
 1659               	.LSM77:
 1660 0434 0CA1      		ldd r16,Y+36
 1661 0436 1DA1      		ldd r17,Y+37
 1662 0438 2EA1      		ldd r18,Y+38
 1663 043a 3FA1      		ldd r19,Y+39
 1664 043c 0230      		cpi r16,lo8(2)
 1665 043e 1105      		cpc r17,__zero_reg__
 1666 0440 2105      		cpc r18,__zero_reg__
 1667 0442 3105      		cpc r19,__zero_reg__
 1668 0444 00F4      		brsh .+2
 1669 0446 00C0      		rjmp .L89
 1670               	.LSM78:
 1671 0448 1BA1      		ldd r17,Y+35
 1672 044a 1123      		tst r17
 1673 044c 01F4      		brne .+2
 1674 044e 00C0      		rjmp .L133
 1675               	.LSM79:
 1676 0450 8B82      		std Y+3,r8
 1677 0452 9C82      		std Y+4,r9
 1678 0454 AD82      		std Y+5,r10
 1679 0456 BE82      		std Y+6,r11
 1680               	.LSM80:
 1681 0458 0CA1      		ldd r16,Y+36
 1682 045a 1DA1      		ldd r17,Y+37
 1683 045c 2EA1      		ldd r18,Y+38
 1684 045e 3FA1      		ldd r19,Y+39
 1685 0460 B2E0      		ldi r27,2
 1686 0462 000F      	1:	lsl r16
 1687 0464 111F      		rol r17
 1688 0466 221F      		rol r18
 1689 0468 331F      		rol r19
 1690 046a BA95      		dec r27
 1691 046c 01F4      		brne 1b
 1692 046e 40E0      		ldi r20,lo8(0)
 1693 0470 50E0      		ldi r21,hi8(0)
 1694 0472 BA01      		movw r22,r20
 1695 0474 3C8C      		ldd r3,Y+28
 1696 0476 300E      		add r3,r16
 1697 0478 91E0      		ldi r25,lo8(1)
 1698 047a 3016      		cp r3,r16
 1699 047c 00F0      		brlo .L134
 1700 047e 90E0      		ldi r25,lo8(0)
 1701               	.L134:
 1702 0480 8D8D      		ldd r24,Y+29
 1703 0482 810F      		add r24,r17
 1704 0484 B1E0      		ldi r27,lo8(1)
 1705 0486 8117      		cp r24,r17
 1706 0488 00F0      		brlo .L135
 1707 048a B0E0      		ldi r27,lo8(0)
 1708               	.L135:
 1709 048c D92E      		mov r13,r25
 1710 048e D80E      		add r13,r24
 1711 0490 91E0      		ldi r25,lo8(1)
 1712 0492 D816      		cp r13,r24
 1713 0494 00F0      		brlo .L136
 1714 0496 90E0      		ldi r25,lo8(0)
 1715               	.L136:
 1716 0498 B92B      		or r27,r25
 1717 049a 8E8D      		ldd r24,Y+30
 1718 049c 820F      		add r24,r18
 1719 049e A1E0      		ldi r26,lo8(1)
 1720 04a0 8217      		cp r24,r18
 1721 04a2 00F0      		brlo .L137
 1722 04a4 A0E0      		ldi r26,lo8(0)
 1723               	.L137:
 1724 04a6 B80F      		add r27,r24
 1725 04a8 91E0      		ldi r25,lo8(1)
 1726 04aa B817      		cp r27,r24
 1727 04ac 00F0      		brlo .L138
 1728 04ae 90E0      		ldi r25,lo8(0)
 1729               	.L138:
 1730 04b0 A92B      		or r26,r25
 1731 04b2 8F8D      		ldd r24,Y+31
 1732 04b4 830F      		add r24,r19
 1733 04b6 F1E0      		ldi r31,lo8(1)
 1734 04b8 8317      		cp r24,r19
 1735 04ba 00F0      		brlo .L139
 1736 04bc F0E0      		ldi r31,lo8(0)
 1737               	.L139:
 1738 04be A80F      		add r26,r24
 1739 04c0 91E0      		ldi r25,lo8(1)
 1740 04c2 A817      		cp r26,r24
 1741 04c4 00F0      		brlo .L140
 1742 04c6 90E0      		ldi r25,lo8(0)
 1743               	.L140:
 1744 04c8 F92B      		or r31,r25
 1745 04ca E1E0      		ldi r30,lo8(1)
 1746 04cc C416      		cp r12,r20
 1747 04ce 00F0      		brlo .L141
 1748 04d0 E0E0      		ldi r30,lo8(0)
 1749               	.L141:
 1750 04d2 FC0D      		add r31,r12
 1751 04d4 81E0      		ldi r24,lo8(1)
 1752 04d6 FC15      		cp r31,r12
 1753 04d8 00F0      		brlo .L142
 1754 04da 80E0      		ldi r24,lo8(0)
 1755               	.L142:
 1756 04dc E82B      		or r30,r24
 1757 04de 81E0      		ldi r24,lo8(1)
 1758 04e0 5516      		cp r5,r21
 1759 04e2 00F0      		brlo .L143
 1760 04e4 80E0      		ldi r24,lo8(0)
 1761               	.L143:
 1762 04e6 E50D      		add r30,r5
 1763 04e8 91E0      		ldi r25,lo8(1)
 1764 04ea E515      		cp r30,r5
 1765 04ec 00F0      		brlo .L144
 1766 04ee 90E0      		ldi r25,lo8(0)
 1767               	.L144:
 1768 04f0 892B      		or r24,r25
 1769 04f2 91E0      		ldi r25,lo8(1)
 1770 04f4 4616      		cp r4,r22
 1771 04f6 00F0      		brlo .L145
 1772 04f8 90E0      		ldi r25,lo8(0)
 1773               	.L145:
 1774 04fa 840D      		add r24,r4
 1775 04fc 21E0      		ldi r18,lo8(1)
 1776 04fe 8415      		cp r24,r4
 1777 0500 00F0      		brlo .L146
 1778 0502 20E0      		ldi r18,lo8(0)
 1779               	.L146:
 1780 0504 922B      		or r25,r18
 1781 0506 232D      		mov r18,r3
 1782 0508 3D2D      		mov r19,r13
 1783 050a 4B2F      		mov r20,r27
 1784 050c 5A2F      		mov r21,r26
 1785 050e 6F2F      		mov r22,r31
 1786 0510 7E2F      		mov r23,r30
 1787 0512 A8A1      		ldd r26,Y+32
 1788 0514 9A0F      		add r25,r26
 1789 0516 8E01      		movw r16,r28
 1790 0518 0D5F      		subi r16,lo8(-(3))
 1791 051a 1F4F      		sbci r17,hi8(-(3))
 1792 051c A4E0      		ldi r26,lo8(4)
 1793 051e EA2E      		mov r14,r26
 1794 0520 F12C      		mov r15,__zero_reg__
 1795 0522 EE89      		ldd r30,Y+22
 1796 0524 FF89      		ldd r31,Y+23
 1797 0526 0995      		icall
 1798 0528 00C0      		rjmp .L171
 1799               	.L133:
 1800               	.LSM81:
 1801 052a 9A82      		std Y+2,r9
 1802 052c 8982      		std Y+1,r8
 1803               	.LSM82:
 1804 052e 0CA1      		ldd r16,Y+36
 1805 0530 1DA1      		ldd r17,Y+37
 1806 0532 2EA1      		ldd r18,Y+38
 1807 0534 3FA1      		ldd r19,Y+39
 1808 0536 000F      		lsl r16
 1809 0538 111F      		rol r17
 1810 053a 221F      		rol r18
 1811 053c 331F      		rol r19
 1812 053e 40E0      		ldi r20,lo8(0)
 1813 0540 50E0      		ldi r21,hi8(0)
 1814 0542 BA01      		movw r22,r20
 1815 0544 3C8C      		ldd r3,Y+28
 1816 0546 300E      		add r3,r16
 1817 0548 91E0      		ldi r25,lo8(1)
 1818 054a 3016      		cp r3,r16
 1819 054c 00F0      		brlo .L147
 1820 054e 90E0      		ldi r25,lo8(0)
 1821               	.L147:
 1822 0550 8D8D      		ldd r24,Y+29
 1823 0552 810F      		add r24,r17
 1824 0554 B1E0      		ldi r27,lo8(1)
 1825 0556 8117      		cp r24,r17
 1826 0558 00F0      		brlo .L148
 1827 055a B0E0      		ldi r27,lo8(0)
 1828               	.L148:
 1829 055c D92E      		mov r13,r25
 1830 055e D80E      		add r13,r24
 1831 0560 91E0      		ldi r25,lo8(1)
 1832 0562 D816      		cp r13,r24
 1833 0564 00F0      		brlo .L149
 1834 0566 90E0      		ldi r25,lo8(0)
 1835               	.L149:
 1836 0568 B92B      		or r27,r25
 1837 056a 8E8D      		ldd r24,Y+30
 1838 056c 820F      		add r24,r18
 1839 056e A1E0      		ldi r26,lo8(1)
 1840 0570 8217      		cp r24,r18
 1841 0572 00F0      		brlo .L150
 1842 0574 A0E0      		ldi r26,lo8(0)
 1843               	.L150:
 1844 0576 B80F      		add r27,r24
 1845 0578 91E0      		ldi r25,lo8(1)
 1846 057a B817      		cp r27,r24
 1847 057c 00F0      		brlo .L151
 1848 057e 90E0      		ldi r25,lo8(0)
 1849               	.L151:
 1850 0580 A92B      		or r26,r25
 1851 0582 8F8D      		ldd r24,Y+31
 1852 0584 830F      		add r24,r19
 1853 0586 F1E0      		ldi r31,lo8(1)
 1854 0588 8317      		cp r24,r19
 1855 058a 00F0      		brlo .L152
 1856 058c F0E0      		ldi r31,lo8(0)
 1857               	.L152:
 1858 058e A80F      		add r26,r24
 1859 0590 91E0      		ldi r25,lo8(1)
 1860 0592 A817      		cp r26,r24
 1861 0594 00F0      		brlo .L153
 1862 0596 90E0      		ldi r25,lo8(0)
 1863               	.L153:
 1864 0598 F92B      		or r31,r25
 1865 059a E1E0      		ldi r30,lo8(1)
 1866 059c C416      		cp r12,r20
 1867 059e 00F0      		brlo .L154
 1868 05a0 E0E0      		ldi r30,lo8(0)
 1869               	.L154:
 1870 05a2 FC0D      		add r31,r12
 1871 05a4 81E0      		ldi r24,lo8(1)
 1872 05a6 FC15      		cp r31,r12
 1873 05a8 00F0      		brlo .L155
 1874 05aa 80E0      		ldi r24,lo8(0)
 1875               	.L155:
 1876 05ac E82B      		or r30,r24
 1877 05ae 81E0      		ldi r24,lo8(1)
 1878 05b0 5516      		cp r5,r21
 1879 05b2 00F0      		brlo .L156
 1880 05b4 80E0      		ldi r24,lo8(0)
 1881               	.L156:
 1882 05b6 E50D      		add r30,r5
 1883 05b8 91E0      		ldi r25,lo8(1)
 1884 05ba E515      		cp r30,r5
 1885 05bc 00F0      		brlo .L157
 1886 05be 90E0      		ldi r25,lo8(0)
 1887               	.L157:
 1888 05c0 892B      		or r24,r25
 1889 05c2 91E0      		ldi r25,lo8(1)
 1890 05c4 4616      		cp r4,r22
 1891 05c6 00F0      		brlo .L158
 1892 05c8 90E0      		ldi r25,lo8(0)
 1893               	.L158:
 1894 05ca 840D      		add r24,r4
 1895 05cc 21E0      		ldi r18,lo8(1)
 1896 05ce 8415      		cp r24,r4
 1897 05d0 00F0      		brlo .L159
 1898 05d2 20E0      		ldi r18,lo8(0)
 1899               	.L159:
 1900 05d4 922B      		or r25,r18
 1901 05d6 232D      		mov r18,r3
 1902 05d8 3D2D      		mov r19,r13
 1903 05da 4B2F      		mov r20,r27
 1904 05dc 5A2F      		mov r21,r26
 1905 05de 6F2F      		mov r22,r31
 1906 05e0 7E2F      		mov r23,r30
 1907 05e2 F8A1      		ldd r31,Y+32
 1908 05e4 9F0F      		add r25,r31
 1909 05e6 8E01      		movw r16,r28
 1910 05e8 0F5F      		subi r16,lo8(-(1))
 1911 05ea 1F4F      		sbci r17,hi8(-(1))
 1912 05ec E2E0      		ldi r30,lo8(2)
 1913 05ee EE2E      		mov r14,r30
 1914 05f0 F12C      		mov r15,__zero_reg__
 1915 05f2 AE89      		ldd r26,Y+22
 1916 05f4 BF89      		ldd r27,Y+23
 1917 05f6 FD01      		movw r30,r26
 1918 05f8 0995      		icall
 1919               	.L171:
 1920 05fa 8823      		tst r24
 1921 05fc 01F4      		brne .L89
 1922               	.L132:
 1923               	.LSM83:
 1924 05fe C301      		movw r24,r6
 1925 0600 B501      		movw r22,r10
 1926 0602 A401      		movw r20,r8
 1927 0604 0E94 0000 		call fat_free_clusters
 1928               	.LVL50:
 1929               	.L163:
 1930               	.LBB15:
 1931               	.LSM84:
 1932 0608 8824      		clr r8
 1933 060a 9924      		clr r9
 1934 060c 5401      		movw r10,r8
 1935               	.L89:
 1936               	.LBE15:
 1937               	.LSM85:
 1938 060e B401      		movw r22,r8
 1939 0610 C501      		movw r24,r10
 1940               	/* epilogue start */
 1941 0612 A996      		adiw r28,41
 1942               	.LVL51:
 1943 0614 0FB6      		in __tmp_reg__,__SREG__
 1944 0616 F894      		cli
 1945 0618 DEBF      		out __SP_H__,r29
 1946 061a 0FBE      		out __SREG__,__tmp_reg__
 1947 061c CDBF      		out __SP_L__,r28
 1948               	.LVL52:
 1949 061e CF91      		pop r28
 1950 0620 DF91      		pop r29
 1951               	.LVL53:
 1952 0622 1F91      		pop r17
 1953 0624 0F91      		pop r16
 1954 0626 FF90      		pop r15
 1955 0628 EF90      		pop r14
 1956 062a DF90      		pop r13
 1957 062c CF90      		pop r12
 1958 062e BF90      		pop r11
 1959 0630 AF90      		pop r10
 1960 0632 9F90      		pop r9
 1961 0634 8F90      		pop r8
 1962 0636 7F90      		pop r7
 1963 0638 6F90      		pop r6
 1964 063a 5F90      		pop r5
 1965 063c 4F90      		pop r4
 1966 063e 3F90      		pop r3
 1967 0640 2F90      		pop r2
 1968 0642 0895      		ret
 1969               	.LVL54:
 1970               	.L167:
 1971               	.LBB16:
 1972               	.LSM86:
 1973 0644 8981      		ldd r24,Y+1
 1974 0646 9A81      		ldd r25,Y+2
 1975 0648 0097      		sbiw r24,0
 1976 064a 01F0      		breq .+2
 1977 064c 00C0      		rjmp .L123
 1978 064e 00C0      		rjmp .L174
 1979               	.LBE16:
 1980               	.LFE4:
 1982               		.section	.text.fat_clear_cluster_callback,"ax",@progbits
 1984               	fat_clear_cluster_callback:
 1985               	.LFB8:
 1986               	.LSM87:
 1987               	.LVL55:
 1988               	/* prologue: function */
 1989               	/* frame size = 0 */
 1990               	/* stack size = 0 */
 1991               	.L__stack_usage = 0
 1992               	.LSM88:
 1993 0000 80E1      		ldi r24,lo8(16)
 1994 0002 90E0      		ldi r25,hi8(16)
 1995               	.LVL56:
 1996               	/* epilogue start */
 1997 0004 0895      		ret
 1998               	.LFE8:
 2000               		.section	.text.fat_cluster_offset,"ax",@progbits
 2002               	fat_cluster_offset:
 2003               	.LFB9:
 2004               	.LSM89:
 2005               	.LVL57:
 2006 0000 2F92      		push r2
 2007 0002 3F92      		push r3
 2008 0004 4F92      		push r4
 2009 0006 5F92      		push r5
 2010 0008 6F92      		push r6
 2011 000a 7F92      		push r7
 2012 000c 8F92      		push r8
 2013 000e 9F92      		push r9
 2014 0010 AF92      		push r10
 2015 0012 BF92      		push r11
 2016 0014 CF92      		push r12
 2017 0016 DF92      		push r13
 2018 0018 EF92      		push r14
 2019 001a FF92      		push r15
 2020 001c 0F93      		push r16
 2021 001e 1F93      		push r17
 2022 0020 CF93      		push r28
 2023 0022 DF93      		push r29
 2024               	/* prologue: function */
 2025               	/* frame size = 0 */
 2026               	/* stack size = 18 */
 2027               	.L__stack_usage = 18
 2028 0024 EC01      		movw r28,r24
 2029               	.LSM90:
 2030 0026 0097      		sbiw r24,0
 2031 0028 01F4      		brne .+2
 2032 002a 00C0      		rjmp .L192
 2033               	.LSM91:
 2034 002c 4230      		cpi r20,lo8(2)
 2035 002e 5105      		cpc r21,__zero_reg__
 2036 0030 6105      		cpc r22,__zero_reg__
 2037 0032 7105      		cpc r23,__zero_reg__
 2038 0034 00F4      		brsh .+2
 2039 0036 00C0      		rjmp .L192
 2040               	.LSM92:
 2041 0038 4250      		subi r20,lo8(-(-2))
 2042 003a 5040      		sbci r21,hi8(-(-2))
 2043 003c 6040      		sbci r22,hlo8(-(-2))
 2044 003e 7040      		sbci r23,hhi8(-(-2))
 2045               	.LVL58:
 2046 0040 5A01      		movw r10,r20
 2047 0042 6B01      		movw r12,r22
 2048 0044 288C      		ldd r2,Y+24
 2049 0046 398C      		ldd r3,Y+25
 2050 0048 9A01      		movw r18,r20
 2051 004a A601      		movw r20,r12
 2052               	.LVL59:
 2053 004c 60E0      		ldi r22,lo8(0)
 2054 004e 70E0      		ldi r23,lo8(0)
 2055 0050 80E0      		ldi r24,lo8(0)
 2056               	.LVL60:
 2057 0052 90E0      		ldi r25,lo8(0)
 2058 0054 5101      		movw r10,r2
 2059               	.LVL61:
 2060 0056 CC24      		clr r12
 2061 0058 DD24      		clr r13
 2062 005a EE24      		clr r14
 2063 005c FF24      		clr r15
 2064 005e 00E0      		ldi r16,lo8(0)
 2065 0060 10E0      		ldi r17,lo8(0)
 2066 0062 0E94 0000 		call __muldi3
 2067 0066 FA8D      		ldd r31,Y+26
 2068 0068 EB8D      		ldd r30,Y+27
 2069 006a FC8C      		ldd r15,Y+28
 2070 006c 2D8C      		ldd r2,Y+29
 2071 006e AE8C      		ldd r10,Y+30
 2072 0070 BF8D      		ldd r27,Y+31
 2073 0072 A8A1      		ldd r26,Y+32
 2074 0074 09A1      		ldd r16,Y+33
 2075 0076 F20F      		add r31,r18
 2076 0078 11E0      		ldi r17,lo8(1)
 2077 007a F217      		cp r31,r18
 2078 007c 00F0      		brlo .L178
 2079 007e 10E0      		ldi r17,lo8(0)
 2080               	.L178:
 2081 0080 E30F      		add r30,r19
 2082 0082 21E0      		ldi r18,lo8(1)
 2083 0084 E317      		cp r30,r19
 2084 0086 00F0      		brlo .L179
 2085 0088 20E0      		ldi r18,lo8(0)
 2086               	.L179:
 2087 008a 312F      		mov r19,r17
 2088 008c 3E0F      		add r19,r30
 2089 008e 11E0      		ldi r17,lo8(1)
 2090 0090 3E17      		cp r19,r30
 2091 0092 00F0      		brlo .L180
 2092 0094 10E0      		ldi r17,lo8(0)
 2093               	.L180:
 2094 0096 212B      		or r18,r17
 2095 0098 142F      		mov r17,r20
 2096 009a 1F0D      		add r17,r15
 2097 009c E1E0      		ldi r30,lo8(1)
 2098 009e 1417      		cp r17,r20
 2099 00a0 00F0      		brlo .L181
 2100 00a2 E0E0      		ldi r30,lo8(0)
 2101               	.L181:
 2102 00a4 422F      		mov r20,r18
 2103 00a6 410F      		add r20,r17
 2104 00a8 21E0      		ldi r18,lo8(1)
 2105 00aa 4117      		cp r20,r17
 2106 00ac 00F0      		brlo .L182
 2107 00ae 20E0      		ldi r18,lo8(0)
 2108               	.L182:
 2109 00b0 E22B      		or r30,r18
 2110 00b2 250E      		add r2,r21
 2111 00b4 21E0      		ldi r18,lo8(1)
 2112 00b6 2516      		cp r2,r21
 2113 00b8 00F0      		brlo .L183
 2114 00ba 20E0      		ldi r18,lo8(0)
 2115               	.L183:
 2116 00bc 5E2F      		mov r21,r30
 2117 00be 520D      		add r21,r2
 2118 00c0 E1E0      		ldi r30,lo8(1)
 2119 00c2 5215      		cp r21,r2
 2120 00c4 00F0      		brlo .L184
 2121 00c6 E0E0      		ldi r30,lo8(0)
 2122               	.L184:
 2123 00c8 2E2B      		or r18,r30
 2124 00ca A60E      		add r10,r22
 2125 00cc E1E0      		ldi r30,lo8(1)
 2126 00ce A616      		cp r10,r22
 2127 00d0 00F0      		brlo .L185
 2128 00d2 E0E0      		ldi r30,lo8(0)
 2129               	.L185:
 2130 00d4 622F      		mov r22,r18
 2131 00d6 6A0D      		add r22,r10
 2132 00d8 21E0      		ldi r18,lo8(1)
 2133 00da 6A15      		cp r22,r10
 2134 00dc 00F0      		brlo .L186
 2135 00de 20E0      		ldi r18,lo8(0)
 2136               	.L186:
 2137 00e0 E22B      		or r30,r18
 2138 00e2 B70F      		add r27,r23
 2139 00e4 21E0      		ldi r18,lo8(1)
 2140 00e6 B717      		cp r27,r23
 2141 00e8 00F0      		brlo .L187
 2142 00ea 20E0      		ldi r18,lo8(0)
 2143               	.L187:
 2144 00ec 7E2F      		mov r23,r30
 2145 00ee 7B0F      		add r23,r27
 2146 00f0 E1E0      		ldi r30,lo8(1)
 2147 00f2 7B17      		cp r23,r27
 2148 00f4 00F0      		brlo .L188
 2149 00f6 E0E0      		ldi r30,lo8(0)
 2150               	.L188:
 2151 00f8 2E2B      		or r18,r30
 2152 00fa A80F      		add r26,r24
 2153 00fc E1E0      		ldi r30,lo8(1)
 2154 00fe A817      		cp r26,r24
 2155 0100 00F0      		brlo .L189
 2156 0102 E0E0      		ldi r30,lo8(0)
 2157               	.L189:
 2158 0104 822F      		mov r24,r18
 2159 0106 8A0F      		add r24,r26
 2160 0108 21E0      		ldi r18,lo8(1)
 2161 010a 8A17      		cp r24,r26
 2162 010c 00F0      		brlo .L190
 2163 010e 20E0      		ldi r18,lo8(0)
 2164               	.L190:
 2165 0110 E22B      		or r30,r18
 2166 0112 900F      		add r25,r16
 2167 0114 E90F      		add r30,r25
 2168 0116 00C0      		rjmp .L177
 2169               	.LVL62:
 2170               	.L192:
 2171               	.LSM93:
 2172 0118 F0E0      		ldi r31,lo8(0)
 2173 011a 30E0      		ldi r19,lo8(0)
 2174 011c 40E0      		ldi r20,lo8(0)
 2175               	.LVL63:
 2176 011e 50E0      		ldi r21,lo8(0)
 2177 0120 60E0      		ldi r22,lo8(0)
 2178 0122 70E0      		ldi r23,lo8(0)
 2179 0124 80E0      		ldi r24,lo8(0)
 2180 0126 E0E0      		ldi r30,lo8(0)
 2181               	.L177:
 2182               	.LSM94:
 2183 0128 2F2F      		mov r18,r31
 2184 012a 9E2F      		mov r25,r30
 2185               	/* epilogue start */
 2186 012c DF91      		pop r29
 2187 012e CF91      		pop r28
 2188               	.LVL64:
 2189 0130 1F91      		pop r17
 2190 0132 0F91      		pop r16
 2191 0134 FF90      		pop r15
 2192 0136 EF90      		pop r14
 2193 0138 DF90      		pop r13
 2194 013a CF90      		pop r12
 2195 013c BF90      		pop r11
 2196 013e AF90      		pop r10
 2197 0140 9F90      		pop r9
 2198 0142 8F90      		pop r8
 2199 0144 7F90      		pop r7
 2200 0146 6F90      		pop r6
 2201 0148 5F90      		pop r5
 2202 014a 4F90      		pop r4
 2203 014c 3F90      		pop r3
 2204 014e 2F90      		pop r2
 2205 0150 0895      		ret
 2206               	.LFE9:
 2208               		.section	.text.fat_dir_entry_read_callback,"ax",@progbits
 2210               	fat_dir_entry_read_callback:
 2211               	.LFB21:
 2212               	.LSM95:
 2213               	.LVL65:
 2214 0000 8F92      		push r8
 2215 0002 9F92      		push r9
 2216 0004 AF92      		push r10
 2217 0006 BF92      		push r11
 2218 0008 CF92      		push r12
 2219 000a DF92      		push r13
 2220 000c EF92      		push r14
 2221 000e FF92      		push r15
 2222 0010 0F93      		push r16
 2223 0012 1F93      		push r17
 2224 0014 DF93      		push r29
 2225 0016 CF93      		push r28
 2226 0018 CDB7      		in r28,__SP_L__
 2227 001a DEB7      		in r29,__SP_H__
 2228 001c 2D97      		sbiw r28,13
 2229 001e 0FB6      		in __tmp_reg__,__SREG__
 2230 0020 F894      		cli
 2231 0022 DEBF      		out __SP_H__,r29
 2232 0024 0FBE      		out __SREG__,__tmp_reg__
 2233 0026 CDBF      		out __SP_L__,r28
 2234               	/* prologue: function */
 2235               	/* frame size = 13 */
 2236               	/* stack size = 25 */
 2237               	.L__stack_usage = 25
 2238 0028 FC01      		movw r30,r24
 2239               	.LSM96:
 2240 002a 6701      		movw r12,r14
 2241               	.LVL66:
 2242               	.LSM97:
 2243 002c D701      		movw r26,r14
 2244 002e ED90      		ld r14,X+
 2245 0030 FC90      		ld r15,X
 2246 0032 1197      		sbiw r26,1
 2247               	.LVL67:
 2248               	.LSM98:
 2249 0034 1296      		adiw r26,2
 2250 0036 8D91      		ld r24,X+
 2251 0038 9C91      		ld r25,X
 2252 003a 1397      		sbiw r26,2+1
 2253               	.LVL68:
 2254 003c 8096      		adiw r24,32
 2255 003e 1396      		adiw r26,2+1
 2256 0040 9C93      		st X,r25
 2257 0042 8E93      		st -X,r24
 2258 0044 1297      		sbiw r26,2
 2259               	.LSM99:
 2260 0046 8081      		ld r24,Z
 2261 0048 853E      		cpi r24,lo8(-27)
 2262 004a 01F4      		brne .+2
 2263 004c 00C0      		rjmp .L213
 2264               	.LSM100:
 2265 004e 8823      		tst r24
 2266 0050 01F4      		brne .+2
 2267 0052 00C0      		rjmp .L213
 2268               	.LSM101:
 2269 0054 D701      		movw r26,r14
 2270 0056 9996      		adiw r26,41
 2271 0058 8C91      		ld r24,X
 2272 005a 9997      		sbiw r26,41
 2273 005c 9A96      		adiw r26,42
 2274 005e 9C91      		ld r25,X
 2275 0060 9A97      		sbiw r26,42
 2276 0062 892B      		or r24,r25
 2277 0064 9B96      		adiw r26,43
 2278 0066 9C91      		ld r25,X
 2279 0068 9B97      		sbiw r26,43
 2280 006a 892B      		or r24,r25
 2281 006c 9C96      		adiw r26,44
 2282 006e 9C91      		ld r25,X
 2283 0070 9C97      		sbiw r26,44
 2284 0072 892B      		or r24,r25
 2285 0074 9D96      		adiw r26,45
 2286 0076 9C91      		ld r25,X
 2287 0078 9D97      		sbiw r26,45
 2288 007a 892B      		or r24,r25
 2289 007c 9E96      		adiw r26,46
 2290 007e 9C91      		ld r25,X
 2291 0080 9E97      		sbiw r26,46
 2292 0082 892B      		or r24,r25
 2293 0084 9F96      		adiw r26,47
 2294 0086 9C91      		ld r25,X
 2295 0088 9F97      		sbiw r26,47
 2296 008a 892B      		or r24,r25
 2297 008c D096      		adiw r26,48
 2298 008e 9C91      		ld r25,X
 2299 0090 D097      		sbiw r26,48
 2300 0092 892B      		or r24,r25
 2301 0094 01F4      		brne .L195
 2302               	.LSM102:
 2303 0096 9996      		adiw r26,41
 2304 0098 0C93      		st X,r16
 2305 009a 9997      		sbiw r26,41
 2306 009c 9A96      		adiw r26,42
 2307 009e 1C93      		st X,r17
 2308 00a0 9A97      		sbiw r26,42
 2309 00a2 9B96      		adiw r26,43
 2310 00a4 2C93      		st X,r18
 2311 00a6 9B97      		sbiw r26,43
 2312 00a8 9C96      		adiw r26,44
 2313 00aa 3C93      		st X,r19
 2314 00ac 9C97      		sbiw r26,44
 2315 00ae 9D96      		adiw r26,45
 2316 00b0 4C93      		st X,r20
 2317 00b2 9D97      		sbiw r26,45
 2318 00b4 9E96      		adiw r26,46
 2319 00b6 5C93      		st X,r21
 2320 00b8 9E97      		sbiw r26,46
 2321 00ba 9F96      		adiw r26,47
 2322 00bc 6C93      		st X,r22
 2323 00be 9F97      		sbiw r26,47
 2324 00c0 D096      		adiw r26,48
 2325 00c2 7C93      		st X,r23
 2326 00c4 D097      		sbiw r26,48
 2327               	.L195:
 2328               	.LVL69:
 2329               	.LBB23:
 2330               	.LBB24:
 2331               	.LSM103:
 2332 00c6 E114      		cp r14,__zero_reg__
 2333 00c8 F104      		cpc r15,__zero_reg__
 2334 00ca 01F4      		brne .+2
 2335 00cc 00C0      		rjmp .L212
 2336 00ce 3097      		sbiw r30,0
 2337 00d0 01F4      		brne .+2
 2338 00d2 00C0      		rjmp .L212
 2339 00d4 2081      		ld r18,Z
 2340 00d6 2223      		tst r18
 2341 00d8 01F4      		brne .+2
 2342 00da 00C0      		rjmp .L212
 2343               	.LVL70:
 2344               	.LSM104:
 2345 00dc 8385      		ldd r24,Z+11
 2346 00de 8F30      		cpi r24,lo8(15)
 2347 00e0 01F4      		brne .L196
 2348               	.LBB29:
 2349               	.LSM105:
 2350 00e2 30E0      		ldi r19,lo8(0)
 2351 00e4 2F73      		andi r18,lo8(63)
 2352 00e6 3070      		andi r19,hi8(63)
 2353 00e8 2150      		subi r18,lo8(-(-1))
 2354 00ea 3040      		sbci r19,hi8(-(-1))
 2355 00ec 4DE0      		ldi r20,lo8(13)
 2356 00ee 50E0      		ldi r21,hi8(13)
 2357 00f0 249F      		mul r18,r20
 2358 00f2 C001      		movw r24,r0
 2359 00f4 259F      		mul r18,r21
 2360 00f6 900D      		add r25,r0
 2361 00f8 349F      		mul r19,r20
 2362 00fa 900D      		add r25,r0
 2363 00fc 1124      		clr r1
 2364               	.LVL71:
 2365               	.LSM106:
 2366 00fe 9E01      		movw r18,r28
 2367 0100 2F5F      		subi r18,lo8(-(1))
 2368 0102 3F4F      		sbci r19,hi8(-(1))
 2369 0104 60E0      		ldi r22,lo8(C.23.3238)
 2370 0106 70E0      		ldi r23,hi8(C.23.3238)
 2371 0108 4DE0      		ldi r20,lo8(13)
 2372               	.L197:
 2373 010a DB01      		movw r26,r22
 2374 010c 0D90      		ld r0,X+
 2375 010e BD01      		movw r22,r26
 2376 0110 D901      		movw r26,r18
 2377 0112 0D92      		st X+,r0
 2378 0114 9D01      		movw r18,r26
 2379 0116 4150      		subi r20,lo8(-(-1))
 2380 0118 01F4      		brne .L197
 2381               	.LVL72:
 2382 011a 9E01      		movw r18,r28
 2383 011c 2F5F      		subi r18,lo8(-(1))
 2384 011e 3F4F      		sbci r19,hi8(-(1))
 2385               	.LSM107:
 2386 0120 E80E      		add r14,r24
 2387 0122 F91E      		adc r15,r25
 2388 0124 AC01      		movw r20,r24
 2389 0126 435F      		subi r20,lo8(-(13))
 2390 0128 5F4F      		sbci r21,hi8(-(13))
 2391 012a 00C0      		rjmp .L198
 2392               	.LVL73:
 2393               	.L199:
 2394               	.LBB30:
 2395               	.LSM108:
 2396 012c D901      		movw r26,r18
 2397 012e 6D91      		ld r22,X+
 2398 0130 9D01      		movw r18,r26
 2399 0132 DF01      		movw r26,r30
 2400 0134 A60F      		add r26,r22
 2401 0136 B11D      		adc r27,__zero_reg__
 2402 0138 6C91      		ld r22,X
 2403 013a D701      		movw r26,r14
 2404 013c 6D93      		st X+,r22
 2405 013e 7D01      		movw r14,r26
 2406 0140 0196      		adiw r24,1
 2407               	.LSM109:
 2408 0142 8417      		cp r24,r20
 2409 0144 9507      		cpc r25,r21
 2410 0146 01F4      		brne .+2
 2411 0148 00C0      		rjmp .L213
 2412               	.L198:
 2413 014a 8F31      		cpi r24,31
 2414 014c 9105      		cpc r25,__zero_reg__
 2415 014e 00F0      		brlo .L199
 2416 0150 00C0      		rjmp .L213
 2417               	.LVL74:
 2418               	.L196:
 2419               	.LBE30:
 2420               	.LBE29:
 2421               	.LSM110:
 2422 0152 D701      		movw r26,r14
 2423 0154 8C91      		ld r24,X
 2424 0156 8823      		tst r24
 2425 0158 01F0      		breq .+2
 2426 015a 00C0      		rjmp .L200
 2427 015c 8F01      		movw r16,r30
 2428               	.LVL75:
 2429 015e C701      		movw r24,r14
 2430 0160 9F01      		movw r18,r30
 2431 0162 60E0      		ldi r22,lo8(0)
 2432               	.L203:
 2433               	.LBB26:
 2434               	.LSM111:
 2435 0164 D901      		movw r26,r18
 2436 0166 7D91      		ld r23,X+
 2437 0168 9D01      		movw r18,r26
 2438 016a 7032      		cpi r23,lo8(32)
 2439 016c 01F0      		breq .L201
 2440               	.LSM112:
 2441 016e DC01      		movw r26,r24
 2442 0170 7C93      		st X,r23
 2443               	.LSM113:
 2444 0172 4485      		ldd r20,Z+12
 2445 0174 43FF      		sbrs r20,3
 2446 0176 00C0      		rjmp .L202
 2447               	.LSM114:
 2448 0178 A901      		movw r20,r18
 2449 017a 4150      		subi r20,lo8(-(-1))
 2450 017c 5040      		sbci r21,hi8(-(-1))
 2451               	.LSM115:
 2452 017e DA01      		movw r26,r20
 2453 0180 4C91      		ld r20,X
 2454 0182 4134      		cpi r20,lo8(65)
 2455 0184 00F0      		brlo .L202
 2456 0186 4B35      		cpi r20,lo8(91)
 2457 0188 00F4      		brsh .L202
 2458               	.LSM116:
 2459 018a 705E      		subi r23,lo8(-(32))
 2460 018c DC01      		movw r26,r24
 2461 018e 7C93      		st X,r23
 2462               	.L202:
 2463               	.LSM117:
 2464 0190 6F5F      		subi r22,lo8(-(1))
 2465               	.LVL76:
 2466 0192 0196      		adiw r24,1
 2467 0194 6830      		cpi r22,lo8(8)
 2468 0196 01F4      		brne .L203
 2469               	.LVL77:
 2470               	.L201:
 2471               	.LSM118:
 2472 0198 D701      		movw r26,r14
 2473 019a 8C91      		ld r24,X
 2474 019c 8530      		cpi r24,lo8(5)
 2475 019e 01F4      		brne .L204
 2476               	.LSM119:
 2477 01a0 85EE      		ldi r24,lo8(-27)
 2478 01a2 8C93      		st X,r24
 2479               	.L204:
 2480               	.LSM120:
 2481 01a4 8085      		ldd r24,Z+8
 2482 01a6 8032      		cpi r24,lo8(32)
 2483 01a8 01F0      		breq .L205
 2484               	.LBB27:
 2485               	.LSM121:
 2486 01aa C701      		movw r24,r14
 2487 01ac 860F      		add r24,r22
 2488 01ae 911D      		adc r25,__zero_reg__
 2489 01b0 2EE2      		ldi r18,lo8(46)
 2490 01b2 DC01      		movw r26,r24
 2491 01b4 2C93      		st X,r18
 2492               	.LVL78:
 2493               	.LSM122:
 2494 01b6 462F      		mov r20,r22
 2495 01b8 4C5F      		subi r20,lo8(-(4))
 2496               	.LBE27:
 2497               	.LBE26:
 2498               	.LSM123:
 2499 01ba 6F5F      		subi r22,lo8(-(1))
 2500               	.LVL79:
 2501               	.L207:
 2502               	.LBB25:
 2503               	.LBB28:
 2504               	.LSM124:
 2505 01bc D801      		movw r26,r16
 2506 01be 1896      		adiw r26,8
 2507 01c0 2C91      		ld r18,X
 2508 01c2 1897      		sbiw r26,8
 2509 01c4 2032      		cpi r18,lo8(32)
 2510 01c6 01F0      		breq .L205
 2511               	.LSM125:
 2512 01c8 C701      		movw r24,r14
 2513 01ca 860F      		add r24,r22
 2514 01cc 911D      		adc r25,__zero_reg__
 2515 01ce DC01      		movw r26,r24
 2516 01d0 2C93      		st X,r18
 2517               	.LSM126:
 2518 01d2 3485      		ldd r19,Z+12
 2519 01d4 34FF      		sbrs r19,4
 2520 01d6 00C0      		rjmp .L206
 2521 01d8 D801      		movw r26,r16
 2522 01da 1896      		adiw r26,8
 2523 01dc 3C91      		ld r19,X
 2524 01de 1897      		sbiw r26,8
 2525 01e0 3134      		cpi r19,lo8(65)
 2526 01e2 00F0      		brlo .L206
 2527 01e4 3B35      		cpi r19,lo8(91)
 2528 01e6 00F4      		brsh .L206
 2529               	.LSM127:
 2530 01e8 205E      		subi r18,lo8(-(32))
 2531 01ea DC01      		movw r26,r24
 2532 01ec 2C93      		st X,r18
 2533               	.L206:
 2534               	.LSM128:
 2535 01ee 6F5F      		subi r22,lo8(-(1))
 2536               	.LVL80:
 2537 01f0 0F5F      		subi r16,lo8(-(1))
 2538 01f2 1F4F      		sbci r17,hi8(-(1))
 2539               	.LSM129:
 2540 01f4 6417      		cp r22,r20
 2541 01f6 01F4      		brne .L207
 2542               	.LVL81:
 2543               	.L205:
 2544               	.LBE28:
 2545               	.LSM130:
 2546 01f8 D701      		movw r26,r14
 2547 01fa A60F      		add r26,r22
 2548 01fc B11D      		adc r27,__zero_reg__
 2549 01fe 1C92      		st X,__zero_reg__
 2550               	.LVL82:
 2551               	.L200:
 2552               	.LBE25:
 2553               	.LSM131:
 2554 0200 8385      		ldd r24,Z+11
 2555 0202 D701      		movw r26,r14
 2556 0204 9096      		adiw r26,32
 2557 0206 8C93      		st X,r24
 2558               	.LSM132:
 2559 0208 8489      		ldd r24,Z+20
 2560 020a 9589      		ldd r25,Z+21
 2561 020c A0E0      		ldi r26,lo8(0)
 2562 020e B0E0      		ldi r27,hi8(0)
 2563 0210 5C01      		movw r10,r24
 2564 0212 9924      		clr r9
 2565 0214 8824      		clr r8
 2566               	.LSM133:
 2567 0216 228D      		ldd r18,Z+26
 2568 0218 338D      		ldd r19,Z+27
 2569 021a 40E0      		ldi r20,lo8(0)
 2570 021c 50E0      		ldi r21,hi8(0)
 2571               	.LSM134:
 2572 021e 822A      		or r8,r18
 2573 0220 932A      		or r9,r19
 2574 0222 A42A      		or r10,r20
 2575 0224 B52A      		or r11,r21
 2576 0226 D701      		movw r26,r14
 2577 0228 9196      		adiw r26,33
 2578 022a 8D92      		st X+,r8
 2579 022c 9D92      		st X+,r9
 2580 022e AD92      		st X+,r10
 2581 0230 BC92      		st X,r11
 2582 0232 9497      		sbiw r26,33+3
 2583               	.LSM135:
 2584 0234 848D      		ldd r24,Z+28
 2585 0236 958D      		ldd r25,Z+29
 2586 0238 A68D      		ldd r26,Z+30
 2587 023a B78D      		ldd r27,Z+31
 2588 023c F701      		movw r30,r14
 2589               	.LVL83:
 2590 023e 85A3      		std Z+37,r24
 2591 0240 96A3      		std Z+38,r25
 2592 0242 A7A3      		std Z+39,r26
 2593 0244 B0A7      		std Z+40,r27
 2594               	.LBE24:
 2595               	.LBE23:
 2596               	.LSM136:
 2597 0246 81E0      		ldi r24,lo8(1)
 2598 0248 D601      		movw r26,r12
 2599 024a 1496      		adiw r26,4
 2600 024c 8C93      		st X,r24
 2601 024e 1497      		sbiw r26,4
 2602               	.LVL84:
 2603               	.L212:
 2604               	.LBB34:
 2605               	.LBB33:
 2606               	.LSM137:
 2607 0250 80E0      		ldi r24,lo8(0)
 2608 0252 00C0      		rjmp .L194
 2609               	.LVL85:
 2610               	.L213:
 2611               	.LBB32:
 2612               	.LBB31:
 2613               	.LSM138:
 2614 0254 81E0      		ldi r24,lo8(1)
 2615               	.LVL86:
 2616               	.L194:
 2617               	/* epilogue start */
 2618               	.LBE31:
 2619               	.LBE32:
 2620               	.LBE33:
 2621               	.LBE34:
 2622               	.LSM139:
 2623 0256 2D96      		adiw r28,13
 2624 0258 0FB6      		in __tmp_reg__,__SREG__
 2625 025a F894      		cli
 2626 025c DEBF      		out __SP_H__,r29
 2627 025e 0FBE      		out __SREG__,__tmp_reg__
 2628 0260 CDBF      		out __SP_L__,r28
 2629 0262 CF91      		pop r28
 2630 0264 DF91      		pop r29
 2631 0266 1F91      		pop r17
 2632 0268 0F91      		pop r16
 2633 026a FF90      		pop r15
 2634 026c EF90      		pop r14
 2635 026e DF90      		pop r13
 2636 0270 CF90      		pop r12
 2637               	.LVL87:
 2638 0272 BF90      		pop r11
 2639 0274 AF90      		pop r10
 2640 0276 9F90      		pop r9
 2641 0278 8F90      		pop r8
 2642 027a 0895      		ret
 2643               	.LFE21:
 2645               		.section	.text.fat_get_fs_free_16_callback,"ax",@progbits
 2647               	fat_get_fs_free_16_callback:
 2648               	.LFB30:
 2649               	.LSM140:
 2650               	.LVL88:
 2651 0000 EF92      		push r14
 2652 0002 FF92      		push r15
 2653 0004 CF93      		push r28
 2654 0006 DF93      		push r29
 2655               	/* prologue: function */
 2656               	/* frame size = 0 */
 2657               	/* stack size = 4 */
 2658               	.L__stack_usage = 4
 2659               	.LSM141:
 2660 0008 F701      		movw r30,r14
 2661               	.LVL89:
 2662               	.LSM142:
 2663 000a 2481      		ldd r18,Z+4
 2664 000c 3581      		ldd r19,Z+5
 2665               	.LVL90:
 2666 000e 482F      		mov r20,r24
 2667 0010 592F      		mov r21,r25
 2668 0012 EA01      		movw r28,r20
 2669               	.LBB35:
 2670               	.LSM143:
 2671 0014 40E0      		ldi r20,lo8(0)
 2672 0016 50E0      		ldi r21,hi8(0)
 2673 0018 00C0      		rjmp .L218
 2674               	.LVL91:
 2675               	.L220:
 2676               	.LBB36:
 2677               	.LSM144:
 2678 001a 8991      		ld r24,Y+
 2679 001c 9991      		ld r25,Y+
 2680               	.LVL92:
 2681               	.LSM145:
 2682 001e 0097      		sbiw r24,0
 2683 0020 01F4      		brne .L219
 2684               	.LSM146:
 2685 0022 8081      		ld r24,Z
 2686 0024 9181      		ldd r25,Z+1
 2687 0026 A281      		ldd r26,Z+2
 2688 0028 B381      		ldd r27,Z+3
 2689 002a 0196      		adiw r24,1
 2690 002c A11D      		adc r26,__zero_reg__
 2691 002e B11D      		adc r27,__zero_reg__
 2692 0030 8083      		st Z,r24
 2693 0032 9183      		std Z+1,r25
 2694 0034 A283      		std Z+2,r26
 2695 0036 B383      		std Z+3,r27
 2696               	.L219:
 2697               	.LBE36:
 2698               	.LSM147:
 2699 0038 4E5F      		subi r20,lo8(-(2))
 2700 003a 5F4F      		sbci r21,hi8(-(2))
 2701               	.LVL93:
 2702               	.L218:
 2703               	.LSM148:
 2704 003c 4217      		cp r20,r18
 2705 003e 5307      		cpc r21,r19
 2706 0040 00F0      		brlo .L220
 2707               	.LBE35:
 2708               	.LSM149:
 2709 0042 81E0      		ldi r24,lo8(1)
 2710               	/* epilogue start */
 2711 0044 DF91      		pop r29
 2712 0046 CF91      		pop r28
 2713 0048 FF90      		pop r15
 2714 004a EF90      		pop r14
 2715               	.LVL94:
 2716 004c 0895      		ret
 2717               	.LFE30:
 2719               		.section	.text.fat_get_fs_free_32_callback,"ax",@progbits
 2721               	fat_get_fs_free_32_callback:
 2722               	.LFB31:
 2723               	.LSM150:
 2724               	.LVL95:
 2725 0000 EF92      		push r14
 2726 0002 FF92      		push r15
 2727 0004 CF93      		push r28
 2728 0006 DF93      		push r29
 2729               	/* prologue: function */
 2730               	/* frame size = 0 */
 2731               	/* stack size = 4 */
 2732               	.L__stack_usage = 4
 2733               	.LSM151:
 2734 0008 F701      		movw r30,r14
 2735               	.LVL96:
 2736               	.LSM152:
 2737 000a 2481      		ldd r18,Z+4
 2738 000c 3581      		ldd r19,Z+5
 2739               	.LVL97:
 2740 000e E82E      		mov r14,r24
 2741               	.LVL98:
 2742 0010 E701      		movw r28,r14
 2743 0012 7E01      		movw r14,r28
 2744 0014 F92E      		mov r15,r25
 2745 0016 E701      		movw r28,r14
 2746               	.LBB37:
 2747               	.LSM153:
 2748 0018 40E0      		ldi r20,lo8(0)
 2749 001a 50E0      		ldi r21,hi8(0)
 2750 001c 00C0      		rjmp .L222
 2751               	.LVL99:
 2752               	.L224:
 2753               	.LBB38:
 2754               	.LSM154:
 2755 001e 8991      		ld r24,Y+
 2756 0020 9991      		ld r25,Y+
 2757 0022 A991      		ld r26,Y+
 2758 0024 B991      		ld r27,Y+
 2759               	.LVL100:
 2760               	.LSM155:
 2761 0026 0097      		sbiw r24,0
 2762 0028 A105      		cpc r26,__zero_reg__
 2763 002a B105      		cpc r27,__zero_reg__
 2764 002c 01F4      		brne .L223
 2765               	.LSM156:
 2766 002e 8081      		ld r24,Z
 2767 0030 9181      		ldd r25,Z+1
 2768 0032 A281      		ldd r26,Z+2
 2769 0034 B381      		ldd r27,Z+3
 2770 0036 0196      		adiw r24,1
 2771 0038 A11D      		adc r26,__zero_reg__
 2772 003a B11D      		adc r27,__zero_reg__
 2773 003c 8083      		st Z,r24
 2774 003e 9183      		std Z+1,r25
 2775 0040 A283      		std Z+2,r26
 2776 0042 B383      		std Z+3,r27
 2777               	.L223:
 2778               	.LBE38:
 2779               	.LSM157:
 2780 0044 4C5F      		subi r20,lo8(-(4))
 2781 0046 5F4F      		sbci r21,hi8(-(4))
 2782               	.LVL101:
 2783               	.L222:
 2784               	.LSM158:
 2785 0048 4217      		cp r20,r18
 2786 004a 5307      		cpc r21,r19
 2787 004c 00F0      		brlo .L224
 2788               	.LBE37:
 2789               	.LSM159:
 2790 004e 81E0      		ldi r24,lo8(1)
 2791               	/* epilogue start */
 2792 0050 DF91      		pop r29
 2793 0052 CF91      		pop r28
 2794 0054 FF90      		pop r15
 2795 0056 EF90      		pop r14
 2796 0058 0895      		ret
 2797               	.LFE31:
 2799               		.section	.text.fat_clear_cluster,"ax",@progbits
 2801               	fat_clear_cluster:
 2802               	.LFB7:
 2803               	.LSM160:
 2804               	.LVL102:
 2805 0000 AF92      		push r10
 2806 0002 BF92      		push r11
 2807 0004 CF92      		push r12
 2808 0006 DF92      		push r13
 2809 0008 EF92      		push r14
 2810 000a FF92      		push r15
 2811 000c 0F93      		push r16
 2812 000e 1F93      		push r17
 2813 0010 DF93      		push r29
 2814 0012 CF93      		push r28
 2815 0014 CDB7      		in r28,__SP_L__
 2816 0016 DEB7      		in r29,__SP_H__
 2817 0018 6097      		sbiw r28,16
 2818 001a 0FB6      		in __tmp_reg__,__SREG__
 2819 001c F894      		cli
 2820 001e DEBF      		out __SP_H__,r29
 2821 0020 0FBE      		out __SREG__,__tmp_reg__
 2822 0022 CDBF      		out __SP_L__,r28
 2823               	/* prologue: function */
 2824               	/* frame size = 16 */
 2825               	/* stack size = 26 */
 2826               	.L__stack_usage = 26
 2827 0024 7C01      		movw r14,r24
 2828               	.LSM161:
 2829 0026 4230      		cpi r20,lo8(2)
 2830 0028 5105      		cpc r21,__zero_reg__
 2831 002a 6105      		cpc r22,__zero_reg__
 2832 002c 7105      		cpc r23,__zero_reg__
 2833 002e 00F0      		brlo .L227
 2834               	.LVL103:
 2835               	.LSM162:
 2836 0030 0E94 0000 		call fat_cluster_offset
 2837               	.LVL104:
 2838               	.LSM163:
 2839 0034 8E01      		movw r16,r28
 2840 0036 0F5F      		subi r16,lo8(-(1))
 2841 0038 1F4F      		sbci r17,hi8(-(1))
 2842 003a E0E1      		ldi r30,lo8(16)
 2843 003c D801      		movw r26,r16
 2844 003e 1D92      		st X+,__zero_reg__
 2845 0040 EA95      	        dec r30
 2846 0042 01F4      		brne .-6
 2847               	.LSM164:
 2848 0044 D701      		movw r26,r14
 2849 0046 ED91      		ld r30,X+
 2850 0048 FC91      		ld r31,X
 2851 004a 1197      		sbiw r26,1
 2852 004c 5896      		adiw r26,24
 2853 004e ED90      		ld r14,X+
 2854 0050 FC90      		ld r15,X
 2855 0052 5997      		sbiw r26,24+1
 2856               	.LVL105:
 2857 0054 0680      		ldd __tmp_reg__,Z+6
 2858 0056 F781      		ldd r31,Z+7
 2859 0058 E02D      		mov r30,__tmp_reg__
 2860 005a A0E0      		ldi r26,lo8(gs(fat_clear_cluster_callback))
 2861 005c CA2E      		mov r12,r26
 2862 005e A0E0      		ldi r26,hi8(gs(fat_clear_cluster_callback))
 2863 0060 DA2E      		mov r13,r26
 2864               	.LVL106:
 2865 0062 AA24      		clr r10
 2866 0064 BB24      		clr r11
 2867 0066 0995      		icall
 2868               	.LVL107:
 2869 0068 00C0      		rjmp .L226
 2870               	.LVL108:
 2871               	.L227:
 2872               	.LSM165:
 2873 006a 80E0      		ldi r24,lo8(0)
 2874               	.LVL109:
 2875               	.L226:
 2876               	/* epilogue start */
 2877               	.LSM166:
 2878 006c 6096      		adiw r28,16
 2879 006e 0FB6      		in __tmp_reg__,__SREG__
 2880 0070 F894      		cli
 2881 0072 DEBF      		out __SP_H__,r29
 2882 0074 0FBE      		out __SREG__,__tmp_reg__
 2883 0076 CDBF      		out __SP_L__,r28
 2884 0078 CF91      		pop r28
 2885 007a DF91      		pop r29
 2886 007c 1F91      		pop r17
 2887 007e 0F91      		pop r16
 2888 0080 FF90      		pop r15
 2889 0082 EF90      		pop r14
 2890 0084 DF90      		pop r13
 2891 0086 CF90      		pop r12
 2892 0088 BF90      		pop r11
 2893 008a AF90      		pop r10
 2894 008c 0895      		ret
 2895               	.LFE7:
 2897               		.section	.text.fat_write_dir_entry,"ax",@progbits
 2899               	fat_write_dir_entry:
 2900               	.LFB24:
 2901               	.LSM167:
 2902               	.LVL110:
 2903 0000 2F92      		push r2
 2904 0002 3F92      		push r3
 2905 0004 4F92      		push r4
 2906 0006 5F92      		push r5
 2907 0008 6F92      		push r6
 2908 000a 7F92      		push r7
 2909 000c 8F92      		push r8
 2910 000e 9F92      		push r9
 2911 0010 AF92      		push r10
 2912 0012 BF92      		push r11
 2913 0014 CF92      		push r12
 2914 0016 DF92      		push r13
 2915 0018 EF92      		push r14
 2916 001a FF92      		push r15
 2917 001c 0F93      		push r16
 2918 001e 1F93      		push r17
 2919 0020 DF93      		push r29
 2920 0022 CF93      		push r28
 2921 0024 CDB7      		in r28,__SP_L__
 2922 0026 DEB7      		in r29,__SP_H__
 2923 0028 A597      		sbiw r28,37
 2924 002a 0FB6      		in __tmp_reg__,__SREG__
 2925 002c F894      		cli
 2926 002e DEBF      		out __SP_H__,r29
 2927 0030 0FBE      		out __SREG__,__tmp_reg__
 2928 0032 CDBF      		out __SP_L__,r28
 2929               	/* prologue: function */
 2930               	/* frame size = 37 */
 2931               	/* stack size = 55 */
 2932               	.L__stack_usage = 55
 2933 0034 6B01      		movw r12,r22
 2934               	.LSM168:
 2935 0036 0097      		sbiw r24,0
 2936 0038 01F4      		brne .+2
 2937 003a 00C0      		rjmp .L295
 2938               	.LVL111:
 2939               	.LSM169:
 2940 003c 6115      		cp r22,__zero_reg__
 2941 003e 7105      		cpc r23,__zero_reg__
 2942 0040 01F4      		brne .+2
 2943 0042 00C0      		rjmp .L295
 2944               	.LSM170:
 2945 0044 DC01      		movw r26,r24
 2946 0046 ED91      		ld r30,X+
 2947 0048 FC91      		ld r31,X
 2948 004a 2481      		ldd r18,Z+4
 2949 004c 3581      		ldd r19,Z+5
 2950 004e 3DA3      		std Y+37,r19
 2951 0050 2CA3      		std Y+36,r18
 2952               	.LVL112:
 2953               	.LSM171:
 2954 0052 DB01      		movw r26,r22
 2955 0054 9996      		adiw r26,41
 2956 0056 BC91      		ld r27,X
 2957 0058 BAA3      		std Y+34,r27
 2958 005a FB01      		movw r30,r22
 2959 005c 22A4      		ldd r2,Z+42
 2960 005e 33A4      		ldd r3,Z+43
 2961 0060 44A4      		ldd r4,Z+44
 2962 0062 55A4      		ldd r5,Z+45
 2963 0064 66A4      		ldd r6,Z+46
 2964 0066 77A4      		ldd r7,Z+47
 2965 0068 F0A9      		ldd r31,Z+48
 2966 006a FBA3      		std Y+35,r31
 2967               	.LVL113:
 2968               	.LSM172:
 2969 006c B62E      		mov r11,r22
 2970 006e AD2C      		mov r10,r13
 2971               	.LVL114:
 2972               	.LSM173:
 2973 0070 DB01      		movw r26,r22
 2974 0072 0D90      		ld __tmp_reg__,X+
 2975 0074 0020      		tst __tmp_reg__
 2976 0076 01F4      		brne .-6
 2977 0078 1197      		sbiw r26,1
 2978 007a 0A2F      		mov r16,r26
 2979 007c 061B      		sub r16,r22
 2980               	.LVL115:
 2981               	.LSM174:
 2982 007e 802F      		mov r24,r16
 2983               	.LVL116:
 2984 0080 90E0      		ldi r25,lo8(0)
 2985 0082 0C96      		adiw r24,12
 2986 0084 6DE0      		ldi r22,lo8(13)
 2987 0086 70E0      		ldi r23,hi8(13)
 2988               	.LVL117:
 2989 0088 0E94 0000 		call __divmodhi4
 2990 008c 69A3      		std Y+33,r22
 2991               	.LVL118:
 2992               	.LSM175:
 2993 008e CE01      		movw r24,r28
 2994 0090 0196      		adiw r24,1
 2995 0092 60E2      		ldi r22,lo8(32)
 2996 0094 70E0      		ldi r23,hi8(32)
 2997               	.LVL119:
 2998 0096 4BE0      		ldi r20,lo8(11)
 2999 0098 50E0      		ldi r21,hi8(11)
 3000 009a 0E94 0000 		call memset
 3001               	.LVL120:
 3002               	.LSM176:
 3003 009e C601      		movw r24,r12
 3004 00a0 6EE2      		ldi r22,lo8(46)
 3005 00a2 70E0      		ldi r23,hi8(46)
 3006 00a4 0E94 0000 		call strrchr
 3007               	.LVL121:
 3008               	.LSM177:
 3009 00a8 0097      		sbiw r24,0
 3010 00aa 01F0      		breq .L243
 3011               	.LSM178:
 3012 00ac 9C01      		movw r18,r24
 3013 00ae 2F5F      		subi r18,lo8(-(1))
 3014 00b0 3F4F      		sbci r19,hi8(-(1))
 3015               	.LVL122:
 3016 00b2 DC01      		movw r26,r24
 3017 00b4 1196      		adiw r26,1
 3018 00b6 8C91      		ld r24,X
 3019 00b8 1197      		sbiw r26,1
 3020 00ba 8823      		tst r24
 3021 00bc 01F0      		breq .L243
 3022               	.LBB39:
 3023               	.LSM179:
 3024 00be F901      		movw r30,r18
 3025 00c0 0190      		ld __tmp_reg__,Z+
 3026 00c2 0020      		tst __tmp_reg__
 3027 00c4 01F4      		brne .-6
 3028 00c6 3197      		sbiw r30,1
 3029 00c8 E21B      		sub r30,r18
 3030 00ca F30B      		sbc r31,r19
 3031               	.LVL123:
 3032               	.LSM180:
 3033 00cc 8E2F      		mov r24,r30
 3034 00ce 8095      		com r24
 3035 00d0 080F      		add r16,r24
 3036               	.LVL124:
 3037               	.LSM181:
 3038 00d2 BE01      		movw r22,r28
 3039 00d4 675F      		subi r22,lo8(-(9))
 3040 00d6 7F4F      		sbci r23,hi8(-(9))
 3041 00d8 4E2F      		mov r20,r30
 3042 00da E430      		cpi r30,lo8(4)
 3043 00dc 00F0      		brlo .L244
 3044 00de 43E0      		ldi r20,lo8(3)
 3045               	.L244:
 3046 00e0 CB01      		movw r24,r22
 3047 00e2 B901      		movw r22,r18
 3048 00e4 50E0      		ldi r21,lo8(0)
 3049 00e6 0E94 0000 		call memcpy
 3050               	.LVL125:
 3051               	.L243:
 3052 00ea CE01      		movw r24,r28
 3053 00ec 0196      		adiw r24,1
 3054               	.LBE39:
 3055               	.LSM182:
 3056 00ee 0930      		cpi r16,lo8(9)
 3057 00f0 00F4      		brsh .L246
 3058               	.LSM183:
 3059 00f2 6B2D      		mov r22,r11
 3060 00f4 7A2D      		mov r23,r10
 3061 00f6 402F      		mov r20,r16
 3062 00f8 50E0      		ldi r21,lo8(0)
 3063 00fa 0E94 0000 		call memcpy
 3064               	.LSM184:
 3065 00fe F601      		movw r30,r12
 3066 0100 8081      		ld r24,Z
 3067 0102 8E32      		cpi r24,lo8(46)
 3068 0104 01F4      		brne .L248
 3069               	.LSM185:
 3070 0106 8181      		ldd r24,Z+1
 3071               	.LSM186:
 3072 0108 8E32      		cpi r24,lo8(46)
 3073 010a 01F4      		brne .L249
 3074               	.LSM187:
 3075 010c 8281      		ldd r24,Z+2
 3076               	.L249:
 3077               	.LSM188:
 3078 010e 8823      		tst r24
 3079 0110 01F0      		breq .L294
 3080 0112 00C0      		rjmp .L248
 3081               	.L246:
 3082               	.LBB40:
 3083               	.LSM189:
 3084 0114 FC01      		movw r30,r24
 3085 0116 9501      		movw r18,r10
 3086 0118 832F      		mov r24,r19
 3087 011a 9A2D      		mov r25,r10
 3088 011c DC01      		movw r26,r24
 3089 011e 88E0      		ldi r24,lo8(8)
 3090               	.L250:
 3091 0120 0D90      		ld r0,X+
 3092 0122 0192      		st Z+,r0
 3093 0124 8150      		subi r24,lo8(-(-1))
 3094 0126 01F4      		brne .L250
 3095               	.LSM190:
 3096 0128 D601      		movw r26,r12
 3097 012a 9196      		adiw r26,33
 3098 012c 8C91      		ld r24,X
 3099 012e 9197      		sbiw r26,33
 3100               	.LVL126:
 3101 0130 982F      		mov r25,r24
 3102 0132 9295      		swap r25
 3103 0134 9F70      		andi r25,lo8(15)
 3104               	.LSM191:
 3105 0136 803A      		cpi r24,lo8(-96)
 3106 0138 00F4      		brsh .L251
 3107               	.LSM192:
 3108 013a 905D      		subi r25,lo8(-(48))
 3109 013c 00C0      		rjmp .L252
 3110               	.L251:
 3111               	.LSM193:
 3112 013e 9F59      		subi r25,lo8(-(97))
 3113               	.L252:
 3114               	.LSM194:
 3115 0140 9F83      		std Y+7,r25
 3116               	.LSM195:
 3117 0142 8F70      		andi r24,lo8(15)
 3118               	.LVL127:
 3119               	.LSM196:
 3120 0144 8A30      		cpi r24,lo8(10)
 3121 0146 00F4      		brsh .L253
 3122               	.LSM197:
 3123 0148 805D      		subi r24,lo8(-(48))
 3124               	.LVL128:
 3125 014a 00C0      		rjmp .L254
 3126               	.LVL129:
 3127               	.L253:
 3128               	.LSM198:
 3129 014c 8F59      		subi r24,lo8(-(97))
 3130               	.LVL130:
 3131               	.L254:
 3132               	.LSM199:
 3133 014e 8887      		std Y+8,r24
 3134 0150 00C0      		rjmp .L248
 3135               	.L294:
 3136               	.LBE40:
 3137               	.LSM200:
 3138 0152 19A2      		std Y+33,__zero_reg__
 3139               	.L248:
 3140               	.LSM201:
 3141 0154 8981      		ldd r24,Y+1
 3142 0156 853E      		cpi r24,lo8(-27)
 3143 0158 01F4      		brne .L255
 3144               	.LSM202:
 3145 015a 85E0      		ldi r24,lo8(5)
 3146 015c 8983      		std Y+1,r24
 3147               	.L255:
 3148               	.LSM203:
 3149 015e 85E1      		ldi r24,lo8(21)
 3150 0160 FE01      		movw r30,r28
 3151 0162 3C96      		adiw r30,12
 3152 0164 DF01      		movw r26,r30
 3153 0166 1D92      		st X+,__zero_reg__
 3154 0168 8A95      	        dec r24
 3155 016a 01F4      		brne .-6
 3156               	.LSM204:
 3157 016c F601      		movw r30,r12
 3158 016e 80A1      		ldd r24,Z+32
 3159 0170 8C87      		std Y+12,r24
 3160               	.LSM205:
 3161 0172 9E01      		movw r18,r28
 3162 0174 2F5F      		subi r18,lo8(-(1))
 3163 0176 3F4F      		sbci r19,hi8(-(1))
 3164 0178 81A1      		ldd r24,Z+33
 3165 017a 92A1      		ldd r25,Z+34
 3166 017c A3A1      		ldd r26,Z+35
 3167 017e B4A1      		ldd r27,Z+36
 3168 0180 F901      		movw r30,r18
 3169 0182 B58B      		std Z+21,r27
 3170 0184 A48B      		std Z+20,r26
 3171               	.LSM206:
 3172 0186 938F      		std Z+27,r25
 3173 0188 828F      		std Z+26,r24
 3174               	.LSM207:
 3175 018a F601      		movw r30,r12
 3176 018c 85A1      		ldd r24,Z+37
 3177 018e 96A1      		ldd r25,Z+38
 3178 0190 A7A1      		ldd r26,Z+39
 3179 0192 B0A5      		ldd r27,Z+40
 3180 0194 8D8F      		std Y+29,r24
 3181 0196 9E8F      		std Y+30,r25
 3182 0198 AF8F      		std Y+31,r26
 3183 019a B8A3      		std Y+32,r27
 3184               	.LSM208:
 3185 019c F9A1      		ldd r31,Y+33
 3186 019e 0F2F      		mov r16,r31
 3187               	.LVL131:
 3188 01a0 10E0      		ldi r17,lo8(0)
 3189 01a2 F5E0      		ldi r31,5
 3190 01a4 000F      	1:	lsl r16
 3191 01a6 111F      		rol r17
 3192 01a8 FA95      		dec r31
 3193 01aa 01F4      		brne 1b
 3194 01ac 20E0      		ldi r18,lo8(0)
 3195 01ae 30E0      		ldi r19,hi8(0)
 3196 01b0 40E0      		ldi r20,lo8(0)
 3197 01b2 50E0      		ldi r21,hi8(0)
 3198 01b4 BA01      		movw r22,r20
 3199 01b6 AAA0      		ldd r10,Y+34
 3200 01b8 A00E      		add r10,r16
 3201 01ba 91E0      		ldi r25,lo8(1)
 3202 01bc A016      		cp r10,r16
 3203 01be 00F0      		brlo .L256
 3204 01c0 90E0      		ldi r25,lo8(0)
 3205               	.L256:
 3206 01c2 812F      		mov r24,r17
 3207 01c4 820D      		add r24,r2
 3208 01c6 B1E0      		ldi r27,lo8(1)
 3209 01c8 8117      		cp r24,r17
 3210 01ca 00F0      		brlo .L257
 3211 01cc B0E0      		ldi r27,lo8(0)
 3212               	.L257:
 3213 01ce B92E      		mov r11,r25
 3214               	.LVL132:
 3215 01d0 B80E      		add r11,r24
 3216 01d2 91E0      		ldi r25,lo8(1)
 3217 01d4 B816      		cp r11,r24
 3218 01d6 00F0      		brlo .L258
 3219 01d8 90E0      		ldi r25,lo8(0)
 3220               	.L258:
 3221 01da B92B      		or r27,r25
 3222 01dc A1E0      		ldi r26,lo8(1)
 3223 01de 3216      		cp r3,r18
 3224 01e0 00F0      		brlo .L259
 3225 01e2 A0E0      		ldi r26,lo8(0)
 3226               	.L259:
 3227 01e4 B30D      		add r27,r3
 3228 01e6 81E0      		ldi r24,lo8(1)
 3229 01e8 B315      		cp r27,r3
 3230 01ea 00F0      		brlo .L260
 3231 01ec 80E0      		ldi r24,lo8(0)
 3232               	.L260:
 3233 01ee A82B      		or r26,r24
 3234 01f0 F1E0      		ldi r31,lo8(1)
 3235 01f2 4316      		cp r4,r19
 3236 01f4 00F0      		brlo .L261
 3237 01f6 F0E0      		ldi r31,lo8(0)
 3238               	.L261:
 3239 01f8 A40D      		add r26,r4
 3240 01fa 81E0      		ldi r24,lo8(1)
 3241 01fc A415      		cp r26,r4
 3242 01fe 00F0      		brlo .L262
 3243 0200 80E0      		ldi r24,lo8(0)
 3244               	.L262:
 3245 0202 F82B      		or r31,r24
 3246 0204 E1E0      		ldi r30,lo8(1)
 3247 0206 5416      		cp r5,r20
 3248 0208 00F0      		brlo .L263
 3249 020a E0E0      		ldi r30,lo8(0)
 3250               	.L263:
 3251 020c F50D      		add r31,r5
 3252 020e 81E0      		ldi r24,lo8(1)
 3253 0210 F515      		cp r31,r5
 3254 0212 00F0      		brlo .L264
 3255 0214 80E0      		ldi r24,lo8(0)
 3256               	.L264:
 3257 0216 E82B      		or r30,r24
 3258 0218 81E0      		ldi r24,lo8(1)
 3259 021a 6516      		cp r6,r21
 3260 021c 00F0      		brlo .L265
 3261 021e 80E0      		ldi r24,lo8(0)
 3262               	.L265:
 3263 0220 E60D      		add r30,r6
 3264 0222 91E0      		ldi r25,lo8(1)
 3265 0224 E615      		cp r30,r6
 3266 0226 00F0      		brlo .L266
 3267 0228 90E0      		ldi r25,lo8(0)
 3268               	.L266:
 3269 022a 892B      		or r24,r25
 3270 022c 91E0      		ldi r25,lo8(1)
 3271 022e 7616      		cp r7,r22
 3272 0230 00F0      		brlo .L267
 3273 0232 90E0      		ldi r25,lo8(0)
 3274               	.L267:
 3275 0234 870D      		add r24,r7
 3276 0236 21E0      		ldi r18,lo8(1)
 3277 0238 8715      		cp r24,r7
 3278 023a 00F0      		brlo .L268
 3279 023c 20E0      		ldi r18,lo8(0)
 3280               	.L268:
 3281 023e 922B      		or r25,r18
 3282 0240 9501      		movw r18,r10
 3283 0242 4B2F      		mov r20,r27
 3284 0244 5A2F      		mov r21,r26
 3285 0246 6F2F      		mov r22,r31
 3286 0248 7E2F      		mov r23,r30
 3287 024a ABA1      		ldd r26,Y+35
 3288 024c 9A0F      		add r25,r26
 3289 024e 8E01      		movw r16,r28
 3290 0250 0F5F      		subi r16,lo8(-(1))
 3291 0252 1F4F      		sbci r17,hi8(-(1))
 3292 0254 E0E2      		ldi r30,lo8(32)
 3293 0256 EE2E      		mov r14,r30
 3294 0258 F12C      		mov r15,__zero_reg__
 3295 025a ECA1      		ldd r30,Y+36
 3296 025c FDA1      		ldd r31,Y+37
 3297 025e 0995      		icall
 3298 0260 8823      		tst r24
 3299 0262 01F4      		brne .+2
 3300 0264 00C0      		rjmp .L295
 3301               	.LSM209:
 3302 0266 B980      		ldd r11,Y+1
 3303               	.LVL133:
 3304 0268 FE01      		movw r30,r28
 3305 026a 3296      		adiw r30,2
 3306               	.LSM210:
 3307 026c CE01      		movw r24,r28
 3308 026e 0C96      		adiw r24,12
 3309               	.LVL134:
 3310               	.L269:
 3311               	.LBB41:
 3312               	.LSM211:
 3313 0270 2B2D      		mov r18,r11
 3314 0272 2795      		ror r18
 3315 0274 2227      		clr r18
 3316 0276 2795      		ror r18
 3317 0278 B694      		lsr r11
 3318               	.LVL135:
 3319 027a B22A      		or r11,r18
 3320 027c 2191      		ld r18,Z+
 3321 027e B20E      		add r11,r18
 3322               	.LVL136:
 3323               	.LSM212:
 3324 0280 E817      		cp r30,r24
 3325 0282 F907      		cpc r31,r25
 3326 0284 01F4      		brne .L269
 3327               	.LSM213:
 3328 0286 A9A0      		ldd r10,Y+33
 3329               	.LBE41:
 3330               	.LBB42:
 3331               	.LBB43:
 3332               	.LSM214:
 3333 0288 4E01      		movw r8,r28
 3334 028a 0894      		sec
 3335 028c 811C      		adc r8,__zero_reg__
 3336 028e 911C      		adc r9,__zero_reg__
 3337 0290 00C0      		rjmp .L270
 3338               	.LVL137:
 3339               	.L290:
 3340 0292 C401      		movw r24,r8
 3341 0294 6FEF      		ldi r22,lo8(255)
 3342 0296 70E0      		ldi r23,hi8(255)
 3343 0298 40E2      		ldi r20,lo8(32)
 3344 029a 50E0      		ldi r21,hi8(32)
 3345 029c 0E94 0000 		call memset
 3346               	.LVL138:
 3347               	.LSM215:
 3348 02a0 8A2D      		mov r24,r10
 3349 02a2 90E0      		ldi r25,lo8(0)
 3350 02a4 0197      		sbiw r24,1
 3351 02a6 2DE0      		ldi r18,lo8(13)
 3352 02a8 30E0      		ldi r19,hi8(13)
 3353 02aa 829F      		mul r24,r18
 3354 02ac F001      		movw r30,r0
 3355 02ae 839F      		mul r24,r19
 3356 02b0 F00D      		add r31,r0
 3357 02b2 929F      		mul r25,r18
 3358 02b4 F00D      		add r31,r0
 3359 02b6 1124      		clr r1
 3360 02b8 EC0D      		add r30,r12
 3361 02ba FD1D      		adc r31,r13
 3362               	.LSM216:
 3363 02bc 21E0      		ldi r18,lo8(1)
 3364               	.LVL139:
 3365               	.L275:
 3366               	.LSM217:
 3367 02be AF01      		movw r20,r30
 3368               	.LSM218:
 3369 02c0 C401      		movw r24,r8
 3370 02c2 820F      		add r24,r18
 3371 02c4 911D      		adc r25,__zero_reg__
 3372 02c6 3081      		ld r19,Z
 3373 02c8 DC01      		movw r26,r24
 3374 02ca 3C93      		st X,r19
 3375 02cc 2F5F      		subi r18,lo8(-(1))
 3376               	.LVL140:
 3377               	.LSM219:
 3378 02ce C401      		movw r24,r8
 3379 02d0 820F      		add r24,r18
 3380 02d2 911D      		adc r25,__zero_reg__
 3381 02d4 DC01      		movw r26,r24
 3382 02d6 1C92      		st X,__zero_reg__
 3383 02d8 2F5F      		subi r18,lo8(-(1))
 3384               	.LVL141:
 3385               	.LSM220:
 3386 02da 2B30      		cpi r18,lo8(11)
 3387 02dc 01F0      		breq .L272
 3388 02de 2A31      		cpi r18,lo8(26)
 3389 02e0 01F4      		brne .L271
 3390 02e2 00C0      		rjmp .L299
 3391               	.L272:
 3392               	.LSM221:
 3393 02e4 2EE0      		ldi r18,lo8(14)
 3394               	.LVL142:
 3395 02e6 00C0      		rjmp .L271
 3396               	.LVL143:
 3397               	.L299:
 3398               	.LSM222:
 3399 02e8 2CE1      		ldi r18,lo8(28)
 3400               	.LVL144:
 3401               	.L271:
 3402               	.LSM223:
 3403 02ea 3196      		adiw r30,1
 3404               	.LSM224:
 3405 02ec DA01      		movw r26,r20
 3406 02ee 8C91      		ld r24,X
 3407 02f0 8823      		tst r24
 3408 02f2 01F0      		breq .L274
 3409               	.LSM225:
 3410 02f4 2F31      		cpi r18,lo8(31)
 3411 02f6 00F0      		brlo .L275
 3412               	.L274:
 3413               	.LSM226:
 3414 02f8 A982      		std Y+1,r10
 3415               	.LSM227:
 3416 02fa B9A1      		ldd r27,Y+33
 3417 02fc AB16      		cp r10,r27
 3418 02fe 01F4      		brne .L276
 3419               	.LSM228:
 3420 0300 8A2D      		mov r24,r10
 3421 0302 8064      		ori r24,lo8(64)
 3422 0304 8983      		std Y+1,r24
 3423               	.L276:
 3424               	.LSM229:
 3425 0306 EFE0      		ldi r30,lo8(15)
 3426 0308 EC87      		std Y+12,r30
 3427               	.LSM230:
 3428 030a BE86      		std Y+14,r11
 3429               	.LSM231:
 3430 030c 1D86      		std Y+13,__zero_reg__
 3431               	.LSM232:
 3432 030e 1B8E      		std Y+27,__zero_reg__
 3433               	.LSM233:
 3434 0310 1C8E      		std Y+28,__zero_reg__
 3435               	.LSM234:
 3436 0312 2AA1      		ldd r18,Y+34
 3437               	.LVL145:
 3438 0314 322D      		mov r19,r2
 3439 0316 432D      		mov r20,r3
 3440 0318 542D      		mov r21,r4
 3441 031a 652D      		mov r22,r5
 3442 031c 762D      		mov r23,r6
 3443 031e 872D      		mov r24,r7
 3444 0320 9BA1      		ldd r25,Y+35
 3445 0322 8401      		movw r16,r8
 3446 0324 B0E2      		ldi r27,lo8(32)
 3447 0326 EB2E      		mov r14,r27
 3448 0328 F12C      		mov r15,__zero_reg__
 3449 032a ACA1      		ldd r26,Y+36
 3450 032c BDA1      		ldd r27,Y+37
 3451 032e FD01      		movw r30,r26
 3452 0330 0995      		icall
 3453               	.LSM235:
 3454 0332 7AA1      		ldd r23,Y+34
 3455 0334 705E      		subi r23,lo8(-(32))
 3456 0336 61E0      		ldi r22,lo8(1)
 3457 0338 BAA1      		ldd r27,Y+34
 3458 033a 7B17      		cp r23,r27
 3459 033c 00F0      		brlo .L277
 3460 033e 60E0      		ldi r22,lo8(0)
 3461               	.L277:
 3462 0340 620D      		add r22,r2
 3463 0342 51E0      		ldi r21,lo8(1)
 3464 0344 6215      		cp r22,r2
 3465 0346 00F0      		brlo .L279
 3466 0348 50E0      		ldi r21,lo8(0)
 3467               	.L279:
 3468 034a 530D      		add r21,r3
 3469 034c 41E0      		ldi r20,lo8(1)
 3470 034e 5315      		cp r21,r3
 3471 0350 00F0      		brlo .L281
 3472 0352 40E0      		ldi r20,lo8(0)
 3473               	.L281:
 3474 0354 440D      		add r20,r4
 3475 0356 31E0      		ldi r19,lo8(1)
 3476 0358 4415      		cp r20,r4
 3477 035a 00F0      		brlo .L283
 3478 035c 30E0      		ldi r19,lo8(0)
 3479               	.L283:
 3480 035e 350D      		add r19,r5
 3481 0360 21E0      		ldi r18,lo8(1)
 3482 0362 3515      		cp r19,r5
 3483 0364 00F0      		brlo .L285
 3484 0366 20E0      		ldi r18,lo8(0)
 3485               	.L285:
 3486 0368 260D      		add r18,r6
 3487 036a 91E0      		ldi r25,lo8(1)
 3488 036c 2615      		cp r18,r6
 3489 036e 00F0      		brlo .L287
 3490 0370 90E0      		ldi r25,lo8(0)
 3491               	.L287:
 3492 0372 970D      		add r25,r7
 3493 0374 81E0      		ldi r24,lo8(1)
 3494 0376 9715      		cp r25,r7
 3495 0378 00F0      		brlo .L289
 3496 037a 80E0      		ldi r24,lo8(0)
 3497               	.L289:
 3498 037c 7AA3      		std Y+34,r23
 3499 037e 262E      		mov r2,r22
 3500               	.LVL146:
 3501 0380 352E      		mov r3,r21
 3502 0382 442E      		mov r4,r20
 3503 0384 532E      		mov r5,r19
 3504 0386 622E      		mov r6,r18
 3505 0388 792E      		mov r7,r25
 3506 038a EBA1      		ldd r30,Y+35
 3507 038c E80F      		add r30,r24
 3508 038e EBA3      		std Y+35,r30
 3509               	.LVL147:
 3510               	.LBE43:
 3511               	.LSM236:
 3512 0390 AA94      		dec r10
 3513               	.LVL148:
 3514               	.L270:
 3515               	.LSM237:
 3516 0392 AA20      		tst r10
 3517 0394 01F0      		breq .+2
 3518 0396 00C0      		rjmp .L290
 3519               	.LSM238:
 3520 0398 81E0      		ldi r24,lo8(1)
 3521 039a 00C0      		rjmp .L242
 3522               	.LVL149:
 3523               	.L295:
 3524               	.LBE42:
 3525               	.LSM239:
 3526 039c 80E0      		ldi r24,lo8(0)
 3527               	.L242:
 3528               	/* epilogue start */
 3529               	.LSM240:
 3530 039e A596      		adiw r28,37
 3531 03a0 0FB6      		in __tmp_reg__,__SREG__
 3532 03a2 F894      		cli
 3533 03a4 DEBF      		out __SP_H__,r29
 3534 03a6 0FBE      		out __SREG__,__tmp_reg__
 3535 03a8 CDBF      		out __SP_L__,r28
 3536 03aa CF91      		pop r28
 3537 03ac DF91      		pop r29
 3538 03ae 1F91      		pop r17
 3539 03b0 0F91      		pop r16
 3540 03b2 FF90      		pop r15
 3541 03b4 EF90      		pop r14
 3542 03b6 DF90      		pop r13
 3543 03b8 CF90      		pop r12
 3544               	.LVL150:
 3545 03ba BF90      		pop r11
 3546 03bc AF90      		pop r10
 3547 03be 9F90      		pop r9
 3548 03c0 8F90      		pop r8
 3549 03c2 7F90      		pop r7
 3550 03c4 6F90      		pop r6
 3551 03c6 5F90      		pop r5
 3552 03c8 4F90      		pop r4
 3553 03ca 3F90      		pop r3
 3554 03cc 2F90      		pop r2
 3555 03ce 0895      		ret
 3556               	.LFE24:
 3558               		.section	.text.fat_find_offset_for_dir_entry.clone.0,"ax",@progbits
 3560               	fat_find_offset_for_dir_entry.clone.0:
 3561               	.LFB32:
 3562               	.LSM241:
 3563               	.LVL151:
 3564 0000 2F92      		push r2
 3565 0002 3F92      		push r3
 3566 0004 4F92      		push r4
 3567 0006 5F92      		push r5
 3568 0008 6F92      		push r6
 3569 000a 7F92      		push r7
 3570 000c 8F92      		push r8
 3571 000e 9F92      		push r9
 3572 0010 AF92      		push r10
 3573 0012 BF92      		push r11
 3574 0014 CF92      		push r12
 3575 0016 DF92      		push r13
 3576 0018 EF92      		push r14
 3577 001a FF92      		push r15
 3578 001c 0F93      		push r16
 3579 001e 1F93      		push r17
 3580 0020 DF93      		push r29
 3581 0022 CF93      		push r28
 3582 0024 CDB7      		in r28,__SP_L__
 3583 0026 DEB7      		in r29,__SP_H__
 3584 0028 6597      		sbiw r28,21
 3585 002a 0FB6      		in __tmp_reg__,__SREG__
 3586 002c F894      		cli
 3587 002e DEBF      		out __SP_H__,r29
 3588 0030 0FBE      		out __SREG__,__tmp_reg__
 3589 0032 CDBF      		out __SP_L__,r28
 3590               	/* prologue: function */
 3591               	/* frame size = 21 */
 3592               	/* stack size = 39 */
 3593               	.L__stack_usage = 39
 3594 0034 9B83      		std Y+3,r25
 3595 0036 8A83      		std Y+2,r24
 3596 0038 9B01      		movw r18,r22
 3597               	.LSM242:
 3598 003a 0097      		sbiw r24,0
 3599 003c 01F4      		brne .+2
 3600 003e 00C0      		rjmp .L369
 3601 0040 4115      		cp r20,__zero_reg__
 3602 0042 5105      		cpc r21,__zero_reg__
 3603 0044 01F4      		brne .+2
 3604 0046 00C0      		rjmp .L369
 3605               	.LSM243:
 3606 0048 FA01      		movw r30,r20
 3607 004a 0190      		ld __tmp_reg__,Z+
 3608 004c 0020      		tst __tmp_reg__
 3609 004e 01F4      		brne .-6
 3610 0050 CF01      		movw r24,r30
 3611               	.LVL152:
 3612 0052 841B      		sub r24,r20
 3613 0054 950B      		sbc r25,r21
 3614 0056 0B96      		adiw r24,11
 3615 0058 6DE0      		ldi r22,lo8(13)
 3616 005a 70E0      		ldi r23,hi8(13)
 3617 005c 0E94 0000 		call __udivmodhi4
 3618 0060 6F5F      		subi r22,lo8(-(1))
 3619 0062 6D8B      		std Y+21,r22
 3620               	.LVL153:
 3621               	.LSM244:
 3622 0064 D901      		movw r26,r18
 3623 0066 8D91      		ld r24,X+
 3624 0068 9D91      		ld r25,X+
 3625 006a 0D90      		ld __tmp_reg__,X+
 3626 006c BC91      		ld r27,X
 3627 006e A02D      		mov r26,__tmp_reg__
 3628 0070 8C83      		std Y+4,r24
 3629 0072 9D83      		std Y+5,r25
 3630 0074 AE83      		std Y+6,r26
 3631 0076 BF83      		std Y+7,r27
 3632               	.LVL154:
 3633               	.LSM245:
 3634 0078 AA81      		ldd r26,Y+2
 3635 007a BB81      		ldd r27,Y+3
 3636 007c ED91      		ld r30,X+
 3637 007e FC91      		ld r31,X
 3638 0080 1197      		sbiw r26,1
 3639 0082 8085      		ldd r24,Z+8
 3640               	.LVL155:
 3641               	.LSM246:
 3642 0084 2C81      		ldd r18,Y+4
 3643 0086 3D81      		ldd r19,Y+5
 3644 0088 4E81      		ldd r20,Y+6
 3645 008a 5F81      		ldd r21,Y+7
 3646               	.LVL156:
 3647 008c 2115      		cp r18,__zero_reg__
 3648 008e 3105      		cpc r19,__zero_reg__
 3649 0090 4105      		cpc r20,__zero_reg__
 3650 0092 5105      		cpc r21,__zero_reg__
 3651 0094 01F4      		brne .L365
 3652               	.LSM247:
 3653 0096 8B30      		cpi r24,lo8(11)
 3654 0098 01F4      		brne .L303
 3655               	.LSM248:
 3656 009a 9A96      		adiw r26,42
 3657 009c 8D91      		ld r24,X+
 3658 009e 9D91      		ld r25,X+
 3659 00a0 0D90      		ld __tmp_reg__,X+
 3660 00a2 BC91      		ld r27,X
 3661 00a4 A02D      		mov r26,__tmp_reg__
 3662               	.LVL157:
 3663 00a6 8C83      		std Y+4,r24
 3664 00a8 9D83      		std Y+5,r25
 3665 00aa AE83      		std Y+6,r26
 3666 00ac BF83      		std Y+7,r27
 3667               	.LVL158:
 3668 00ae 00C0      		rjmp .L365
 3669               	.LVL159:
 3670               	.L303:
 3671               	.LSM249:
 3672 00b0 EA81      		ldd r30,Y+2
 3673 00b2 FB81      		ldd r31,Y+3
 3674 00b4 22A0      		ldd r2,Z+34
 3675 00b6 D3A0      		ldd r13,Z+35
 3676 00b8 C4A0      		ldd r12,Z+36
 3677 00ba B5A0      		ldd r11,Z+37
 3678 00bc A6A0      		ldd r10,Z+38
 3679 00be 97A0      		ldd r9,Z+39
 3680 00c0 80A4      		ldd r8,Z+40
 3681 00c2 71A4      		ldd r7,Z+41
 3682               	.LVL160:
 3683               	.LSM250:
 3684 00c4 F28D      		ldd r31,Z+26
 3685 00c6 FD87      		std Y+13,r31
 3686 00c8 AA81      		ldd r26,Y+2
 3687 00ca BB81      		ldd r27,Y+3
 3688 00cc 5B96      		adiw r26,27
 3689 00ce BC91      		ld r27,X
 3690 00d0 BE87      		std Y+14,r27
 3691 00d2 EA81      		ldd r30,Y+2
 3692 00d4 FB81      		ldd r31,Y+3
 3693 00d6 F48D      		ldd r31,Z+28
 3694 00d8 FF87      		std Y+15,r31
 3695 00da AA81      		ldd r26,Y+2
 3696 00dc BB81      		ldd r27,Y+3
 3697 00de 5D96      		adiw r26,29
 3698 00e0 BC91      		ld r27,X
 3699 00e2 B88B      		std Y+16,r27
 3700 00e4 EA81      		ldd r30,Y+2
 3701 00e6 FB81      		ldd r31,Y+3
 3702 00e8 F68D      		ldd r31,Z+30
 3703 00ea F98B      		std Y+17,r31
 3704 00ec AA81      		ldd r26,Y+2
 3705 00ee BB81      		ldd r27,Y+3
 3706 00f0 5F96      		adiw r26,31
 3707 00f2 BC91      		ld r27,X
 3708 00f4 BA8B      		std Y+18,r27
 3709 00f6 EA81      		ldd r30,Y+2
 3710 00f8 FB81      		ldd r31,Y+3
 3711 00fa F0A1      		ldd r31,Z+32
 3712 00fc FB8B      		std Y+19,r31
 3713 00fe AA81      		ldd r26,Y+2
 3714 0100 BB81      		ldd r27,Y+3
 3715 0102 9196      		adiw r26,33
 3716 0104 BC91      		ld r27,X
 3717 0106 BC8B      		std Y+20,r27
 3718               	.LVL161:
 3719 0108 00C0      		rjmp .L302
 3720               	.LVL162:
 3721               	.L365:
 3722               	.LSM251:
 3723 010a 1D86      		std Y+13,__zero_reg__
 3724 010c 1E86      		std Y+14,__zero_reg__
 3725 010e 1F86      		std Y+15,__zero_reg__
 3726 0110 188A      		std Y+16,__zero_reg__
 3727 0112 198A      		std Y+17,__zero_reg__
 3728 0114 1A8A      		std Y+18,__zero_reg__
 3729 0116 1B8A      		std Y+19,__zero_reg__
 3730 0118 1C8A      		std Y+20,__zero_reg__
 3731               	.LSM252:
 3732 011a 2224      		clr r2
 3733 011c DD24      		clr r13
 3734 011e CC24      		clr r12
 3735 0120 BB24      		clr r11
 3736 0122 AA24      		clr r10
 3737 0124 9924      		clr r9
 3738 0126 8824      		clr r8
 3739 0128 7724      		clr r7
 3740               	.LVL163:
 3741               	.L302:
 3742               	.LBB44:
 3743               	.LSM253:
 3744 012a 522C      		mov r5,r2
 3745 012c 4D2C      		mov r4,r13
 3746 012e 3C2C      		mov r3,r12
 3747 0130 B886      		std Y+8,r11
 3748 0132 A986      		std Y+9,r10
 3749 0134 9A86      		std Y+10,r9
 3750 0136 8B86      		std Y+11,r8
 3751 0138 672C      		mov r6,r7
 3752               	.LVL164:
 3753               	.L372:
 3754 013a 1C86      		std Y+12,__zero_reg__
 3755               	.LVL165:
 3756               	.L370:
 3757               	.LSM254:
 3758 013c ED85      		ldd r30,Y+13
 3759 013e 2E16      		cp r2,r30
 3760 0140 01F0      		breq .+2
 3761 0142 00C0      		rjmp .L305
 3762 0144 FE85      		ldd r31,Y+14
 3763 0146 DF16      		cp r13,r31
 3764 0148 01F0      		breq .+2
 3765 014a 00C0      		rjmp .L305
 3766 014c 2F85      		ldd r18,Y+15
 3767 014e C216      		cp r12,r18
 3768 0150 01F0      		breq .+2
 3769 0152 00C0      		rjmp .L305
 3770 0154 3889      		ldd r19,Y+16
 3771 0156 B316      		cp r11,r19
 3772 0158 01F0      		breq .+2
 3773 015a 00C0      		rjmp .L305
 3774 015c 4989      		ldd r20,Y+17
 3775 015e A416      		cp r10,r20
 3776 0160 01F0      		breq .+2
 3777 0162 00C0      		rjmp .L305
 3778 0164 5A89      		ldd r21,Y+18
 3779 0166 9516      		cp r9,r21
 3780 0168 01F0      		breq .+2
 3781 016a 00C0      		rjmp .L305
 3782 016c 8B89      		ldd r24,Y+19
 3783 016e 8816      		cp r8,r24
 3784 0170 01F0      		breq .+2
 3785 0172 00C0      		rjmp .L305
 3786 0174 9C89      		ldd r25,Y+20
 3787 0176 7916      		cp r7,r25
 3788 0178 01F0      		breq .+2
 3789 017a 00C0      		rjmp .L305
 3790               	.LSM255:
 3791 017c 2C81      		ldd r18,Y+4
 3792 017e 3D81      		ldd r19,Y+5
 3793 0180 4E81      		ldd r20,Y+6
 3794 0182 5F81      		ldd r21,Y+7
 3795 0184 2115      		cp r18,__zero_reg__
 3796 0186 3105      		cpc r19,__zero_reg__
 3797 0188 4105      		cpc r20,__zero_reg__
 3798 018a 5105      		cpc r21,__zero_reg__
 3799 018c 01F4      		brne .+2
 3800 018e 00C0      		rjmp .L369
 3801               	.LSM256:
 3802 0190 D228      		or r13,r2
 3803               	.LVL166:
 3804 0192 DC28      		or r13,r12
 3805 0194 DB28      		or r13,r11
 3806 0196 DA28      		or r13,r10
 3807 0198 D928      		or r13,r9
 3808 019a D828      		or r13,r8
 3809 019c D728      		or r13,r7
 3810 019e 01F4      		brne .+2
 3811 01a0 00C0      		rjmp .L306
 3812               	.LBB45:
 3813               	.LSM257:
 3814 01a2 8A81      		ldd r24,Y+2
 3815 01a4 9B81      		ldd r25,Y+3
 3816 01a6 BA01      		movw r22,r20
 3817 01a8 A901      		movw r20,r18
 3818 01aa 0E94 0000 		call fat_get_next_cluster
 3819               	.LVL167:
 3820               	.LSM258:
 3821 01ae 6115      		cp r22,__zero_reg__
 3822 01b0 7105      		cpc r23,__zero_reg__
 3823 01b2 8105      		cpc r24,__zero_reg__
 3824 01b4 9105      		cpc r25,__zero_reg__
 3825 01b6 01F0      		breq .+2
 3826 01b8 00C0      		rjmp .L367
 3827               	.LSM259:
 3828 01ba 8A81      		ldd r24,Y+2
 3829 01bc 9B81      		ldd r25,Y+3
 3830 01be 4C81      		ldd r20,Y+4
 3831 01c0 5D81      		ldd r21,Y+5
 3832 01c2 6E81      		ldd r22,Y+6
 3833 01c4 7F81      		ldd r23,Y+7
 3834 01c6 01E0      		ldi r16,lo8(1)
 3835 01c8 10E0      		ldi r17,hi8(1)
 3836 01ca 20E0      		ldi r18,hlo8(1)
 3837 01cc 30E0      		ldi r19,hhi8(1)
 3838 01ce 0E94 0000 		call fat_append_clusters
 3839               	.LVL168:
 3840 01d2 6C83      		std Y+4,r22
 3841 01d4 7D83      		std Y+5,r23
 3842 01d6 8E83      		std Y+6,r24
 3843 01d8 9F83      		std Y+7,r25
 3844               	.LVL169:
 3845               	.LSM260:
 3846 01da 6115      		cp r22,__zero_reg__
 3847 01dc 7105      		cpc r23,__zero_reg__
 3848 01de 8105      		cpc r24,__zero_reg__
 3849 01e0 9105      		cpc r25,__zero_reg__
 3850 01e2 01F4      		brne .+2
 3851 01e4 00C0      		rjmp .L369
 3852               	.LSM261:
 3853 01e6 DC01      		movw r26,r24
 3854 01e8 CB01      		movw r24,r22
 3855 01ea 0297      		sbiw r24,2
 3856 01ec A109      		sbc r26,__zero_reg__
 3857 01ee B109      		sbc r27,__zero_reg__
 3858 01f0 5C01      		movw r10,r24
 3859 01f2 6D01      		movw r12,r26
 3860 01f4 AA81      		ldd r26,Y+2
 3861 01f6 BB81      		ldd r27,Y+3
 3862 01f8 5896      		adiw r26,24
 3863 01fa 2D90      		ld r2,X+
 3864 01fc 3C90      		ld r3,X
 3865 01fe 5997      		sbiw r26,24+1
 3866 0200 9501      		movw r18,r10
 3867 0202 A601      		movw r20,r12
 3868 0204 60E0      		ldi r22,lo8(0)
 3869               	.LVL170:
 3870 0206 70E0      		ldi r23,lo8(0)
 3871 0208 80E0      		ldi r24,lo8(0)
 3872 020a 90E0      		ldi r25,lo8(0)
 3873 020c 5101      		movw r10,r2
 3874 020e CC24      		clr r12
 3875 0210 DD24      		clr r13
 3876 0212 EE24      		clr r14
 3877 0214 FF24      		clr r15
 3878 0216 00E0      		ldi r16,lo8(0)
 3879 0218 10E0      		ldi r17,lo8(0)
 3880 021a 0E94 0000 		call __muldi3
 3881               	.LSM262:
 3882 021e EA81      		ldd r30,Y+2
 3883 0220 FB81      		ldd r31,Y+3
 3884 0222 528C      		ldd r5,Z+26
 3885               	.LVL171:
 3886 0224 B38D      		ldd r27,Z+27
 3887 0226 A48D      		ldd r26,Z+28
 3888 0228 A58C      		ldd r10,Z+29
 3889 022a 968C      		ldd r9,Z+30
 3890 022c B78C      		ldd r11,Z+31
 3891 022e C0A0      		ldd r12,Z+32
 3892 0230 D1A0      		ldd r13,Z+33
 3893 0232 520E      		add r5,r18
 3894 0234 11E0      		ldi r17,lo8(1)
 3895 0236 5216      		cp r5,r18
 3896 0238 00F0      		brlo .L308
 3897 023a 10E0      		ldi r17,lo8(0)
 3898               	.L308:
 3899 023c B30F      		add r27,r19
 3900 023e 21E0      		ldi r18,lo8(1)
 3901 0240 B317      		cp r27,r19
 3902 0242 00F0      		brlo .L309
 3903 0244 20E0      		ldi r18,lo8(0)
 3904               	.L309:
 3905 0246 412E      		mov r4,r17
 3906 0248 4B0E      		add r4,r27
 3907 024a 31E0      		ldi r19,lo8(1)
 3908 024c 4B16      		cp r4,r27
 3909 024e 00F0      		brlo .L310
 3910 0250 30E0      		ldi r19,lo8(0)
 3911               	.L310:
 3912 0252 232B      		or r18,r19
 3913 0254 A40F      		add r26,r20
 3914 0256 31E0      		ldi r19,lo8(1)
 3915 0258 A417      		cp r26,r20
 3916 025a 00F0      		brlo .L311
 3917 025c 30E0      		ldi r19,lo8(0)
 3918               	.L311:
 3919 025e 322E      		mov r3,r18
 3920 0260 3A0E      		add r3,r26
 3921 0262 21E0      		ldi r18,lo8(1)
 3922 0264 3A16      		cp r3,r26
 3923 0266 00F0      		brlo .L312
 3924 0268 20E0      		ldi r18,lo8(0)
 3925               	.L312:
 3926 026a 322B      		or r19,r18
 3927 026c FA2D      		mov r31,r10
 3928 026e F50F      		add r31,r21
 3929 0270 21E0      		ldi r18,lo8(1)
 3930 0272 F517      		cp r31,r21
 3931 0274 00F0      		brlo .L313
 3932 0276 20E0      		ldi r18,lo8(0)
 3933               	.L313:
 3934 0278 A32F      		mov r26,r19
 3935 027a AF0F      		add r26,r31
 3936 027c 31E0      		ldi r19,lo8(1)
 3937 027e AF17      		cp r26,r31
 3938 0280 00F0      		brlo .L314
 3939 0282 30E0      		ldi r19,lo8(0)
 3940               	.L314:
 3941 0284 232B      		or r18,r19
 3942 0286 E92D      		mov r30,r9
 3943 0288 E60F      		add r30,r22
 3944 028a 31E0      		ldi r19,lo8(1)
 3945 028c E617      		cp r30,r22
 3946 028e 00F0      		brlo .L315
 3947 0290 30E0      		ldi r19,lo8(0)
 3948               	.L315:
 3949 0292 622F      		mov r22,r18
 3950 0294 6E0F      		add r22,r30
 3951 0296 21E0      		ldi r18,lo8(1)
 3952 0298 6E17      		cp r22,r30
 3953 029a 00F0      		brlo .L316
 3954 029c 20E0      		ldi r18,lo8(0)
 3955               	.L316:
 3956 029e 322B      		or r19,r18
 3957 02a0 572F      		mov r21,r23
 3958 02a2 5B0D      		add r21,r11
 3959 02a4 21E0      		ldi r18,lo8(1)
 3960 02a6 5717      		cp r21,r23
 3961 02a8 00F0      		brlo .L317
 3962 02aa 20E0      		ldi r18,lo8(0)
 3963               	.L317:
 3964 02ac 350F      		add r19,r21
 3965 02ae 41E0      		ldi r20,lo8(1)
 3966 02b0 3517      		cp r19,r21
 3967 02b2 00F0      		brlo .L318
 3968 02b4 40E0      		ldi r20,lo8(0)
 3969               	.L318:
 3970 02b6 242B      		or r18,r20
 3971 02b8 482F      		mov r20,r24
 3972 02ba 4C0D      		add r20,r12
 3973 02bc 51E0      		ldi r21,lo8(1)
 3974 02be 4817      		cp r20,r24
 3975 02c0 00F0      		brlo .L319
 3976 02c2 50E0      		ldi r21,lo8(0)
 3977               	.L319:
 3978 02c4 822F      		mov r24,r18
 3979 02c6 840F      		add r24,r20
 3980 02c8 21E0      		ldi r18,lo8(1)
 3981 02ca 8417      		cp r24,r20
 3982 02cc 00F0      		brlo .L320
 3983 02ce 20E0      		ldi r18,lo8(0)
 3984               	.L320:
 3985 02d0 652E      		mov r6,r21
 3986 02d2 622A      		or r6,r18
 3987 02d4 D90E      		add r13,r25
 3988 02d6 A887      		std Y+8,r26
 3989 02d8 6987      		std Y+9,r22
 3990 02da 3A87      		std Y+10,r19
 3991 02dc 8B87      		std Y+11,r24
 3992 02de 6D0C      		add r6,r13
 3993               	.LVL172:
 3994               	.LSM263:
 3995 02e0 8A81      		ldd r24,Y+2
 3996 02e2 9B81      		ldd r25,Y+3
 3997               	.LVL173:
 3998 02e4 4C81      		ldd r20,Y+4
 3999 02e6 5D81      		ldd r21,Y+5
 4000 02e8 6E81      		ldd r22,Y+6
 4001 02ea 7F81      		ldd r23,Y+7
 4002 02ec 0E94 0000 		call fat_clear_cluster
 4003               	.LVL174:
 4004 02f0 00C0      		rjmp .L301
 4005               	.LVL175:
 4006               	.L367:
 4007               	.LSM264:
 4008 02f2 6C83      		std Y+4,r22
 4009 02f4 7D83      		std Y+5,r23
 4010 02f6 8E83      		std Y+6,r24
 4011 02f8 9F83      		std Y+7,r25
 4012               	.LVL176:
 4013               	.L306:
 4014               	.LBE45:
 4015               	.LSM265:
 4016 02fa 8A81      		ldd r24,Y+2
 4017 02fc 9B81      		ldd r25,Y+3
 4018 02fe 4C81      		ldd r20,Y+4
 4019 0300 5D81      		ldd r21,Y+5
 4020 0302 6E81      		ldd r22,Y+6
 4021 0304 7F81      		ldd r23,Y+7
 4022 0306 0E94 0000 		call fat_cluster_offset
 4023 030a 222E      		mov r2,r18
 4024 030c D32E      		mov r13,r19
 4025 030e C42E      		mov r12,r20
 4026 0310 B52E      		mov r11,r21
 4027 0312 A62E      		mov r10,r22
 4028 0314 972E      		mov r9,r23
 4029 0316 882E      		mov r8,r24
 4030 0318 792E      		mov r7,r25
 4031               	.LVL177:
 4032               	.LSM266:
 4033 031a AA81      		ldd r26,Y+2
 4034 031c BB81      		ldd r27,Y+3
 4035 031e 5896      		adiw r26,24
 4036 0320 2D91      		ld r18,X+
 4037 0322 3C91      		ld r19,X
 4038 0324 5997      		sbiw r26,24+1
 4039               	.LVL178:
 4040 0326 E22D      		mov r30,r2
 4041 0328 E20F      		add r30,r18
 4042 032a F1E0      		ldi r31,lo8(1)
 4043 032c E215      		cp r30,r2
 4044 032e 00F0      		brlo .L321
 4045 0330 F0E0      		ldi r31,lo8(0)
 4046               	.L321:
 4047 0332 9D2D      		mov r25,r13
 4048               	.LVL179:
 4049 0334 930F      		add r25,r19
 4050 0336 21E0      		ldi r18,lo8(1)
 4051 0338 9D15      		cp r25,r13
 4052 033a 00F0      		brlo .L322
 4053 033c 20E0      		ldi r18,lo8(0)
 4054               	.L322:
 4055 033e 6F2F      		mov r22,r31
 4056               	.LVL180:
 4057 0340 690F      		add r22,r25
 4058 0342 81E0      		ldi r24,lo8(1)
 4059               	.LVL181:
 4060 0344 6917      		cp r22,r25
 4061 0346 00F0      		brlo .L323
 4062 0348 80E0      		ldi r24,lo8(0)
 4063               	.L323:
 4064 034a 822B      		or r24,r18
 4065 034c 8C0D      		add r24,r12
 4066 034e 51E0      		ldi r21,lo8(1)
 4067               	.LVL182:
 4068 0350 8C15      		cp r24,r12
 4069 0352 00F0      		brlo .L325
 4070 0354 50E0      		ldi r21,lo8(0)
 4071               	.L325:
 4072 0356 5B0D      		add r21,r11
 4073 0358 41E0      		ldi r20,lo8(1)
 4074               	.LVL183:
 4075 035a 5B15      		cp r21,r11
 4076 035c 00F0      		brlo .L327
 4077 035e 40E0      		ldi r20,lo8(0)
 4078               	.L327:
 4079 0360 4A0D      		add r20,r10
 4080 0362 31E0      		ldi r19,lo8(1)
 4081               	.LVL184:
 4082 0364 4A15      		cp r20,r10
 4083 0366 00F0      		brlo .L329
 4084 0368 30E0      		ldi r19,lo8(0)
 4085               	.L329:
 4086 036a 390D      		add r19,r9
 4087 036c 21E0      		ldi r18,lo8(1)
 4088 036e 3915      		cp r19,r9
 4089 0370 00F0      		brlo .L331
 4090 0372 20E0      		ldi r18,lo8(0)
 4091               	.L331:
 4092 0374 280D      		add r18,r8
 4093 0376 91E0      		ldi r25,lo8(1)
 4094 0378 2815      		cp r18,r8
 4095 037a 00F0      		brlo .L333
 4096 037c 90E0      		ldi r25,lo8(0)
 4097               	.L333:
 4098 037e ED87      		std Y+13,r30
 4099 0380 6E87      		std Y+14,r22
 4100 0382 8F87      		std Y+15,r24
 4101 0384 588B      		std Y+16,r21
 4102 0386 498B      		std Y+17,r20
 4103 0388 3A8B      		std Y+18,r19
 4104 038a 2B8B      		std Y+19,r18
 4105 038c 970D      		add r25,r7
 4106 038e 9C8B      		std Y+20,r25
 4107               	.LVL185:
 4108               	.LSM267:
 4109 0390 522C      		mov r5,r2
 4110 0392 4D2C      		mov r4,r13
 4111 0394 3C2C      		mov r3,r12
 4112 0396 B886      		std Y+8,r11
 4113 0398 A986      		std Y+9,r10
 4114 039a 9A86      		std Y+10,r9
 4115 039c 8B86      		std Y+11,r8
 4116 039e 672C      		mov r6,r7
 4117               	.LSM268:
 4118 03a0 1C86      		std Y+12,__zero_reg__
 4119               	.LVL186:
 4120               	.L305:
 4121               	.LSM269:
 4122 03a2 AA81      		ldd r26,Y+2
 4123 03a4 BB81      		ldd r27,Y+3
 4124 03a6 ED91      		ld r30,X+
 4125 03a8 FC91      		ld r31,X
 4126 03aa 0190      		ld __tmp_reg__,Z+
 4127 03ac F081      		ld r31,Z
 4128 03ae E02D      		mov r30,__tmp_reg__
 4129 03b0 222D      		mov r18,r2
 4130 03b2 3D2D      		mov r19,r13
 4131 03b4 4C2D      		mov r20,r12
 4132 03b6 5B2D      		mov r21,r11
 4133 03b8 6A2D      		mov r22,r10
 4134 03ba 792D      		mov r23,r9
 4135 03bc 882D      		mov r24,r8
 4136 03be 972D      		mov r25,r7
 4137 03c0 8E01      		movw r16,r28
 4138 03c2 0F5F      		subi r16,lo8(-(1))
 4139 03c4 1F4F      		sbci r17,hi8(-(1))
 4140 03c6 A1E0      		ldi r26,lo8(1)
 4141 03c8 EA2E      		mov r14,r26
 4142 03ca F12C      		mov r15,__zero_reg__
 4143 03cc 0995      		icall
 4144 03ce 8823      		tst r24
 4145 03d0 01F4      		brne .+2
 4146 03d2 00C0      		rjmp .L369
 4147               	.LSM270:
 4148 03d4 8981      		ldd r24,Y+1
 4149 03d6 853E      		cpi r24,lo8(-27)
 4150 03d8 01F0      		breq .L334
 4151 03da 8823      		tst r24
 4152 03dc 01F4      		brne .L335
 4153               	.L334:
 4154               	.LSM271:
 4155 03de BC85      		ldd r27,Y+12
 4156 03e0 BF5F      		subi r27,lo8(-(1))
 4157 03e2 BC87      		std Y+12,r27
 4158               	.LVL187:
 4159               	.LSM272:
 4160 03e4 ED89      		ldd r30,Y+21
 4161 03e6 BE17      		cp r27,r30
 4162 03e8 00F0      		brlo .+2
 4163 03ea 00C0      		rjmp .L301
 4164               	.LSM273:
 4165 03ec 722D      		mov r23,r2
 4166 03ee 705E      		subi r23,lo8(-(32))
 4167 03f0 61E0      		ldi r22,lo8(1)
 4168 03f2 7215      		cp r23,r2
 4169 03f4 00F0      		brlo .L336
 4170 03f6 60E0      		ldi r22,lo8(0)
 4171               	.L336:
 4172 03f8 6D0D      		add r22,r13
 4173 03fa 51E0      		ldi r21,lo8(1)
 4174 03fc 6D15      		cp r22,r13
 4175 03fe 00F0      		brlo .L338
 4176 0400 50E0      		ldi r21,lo8(0)
 4177               	.L338:
 4178 0402 5C0D      		add r21,r12
 4179 0404 41E0      		ldi r20,lo8(1)
 4180 0406 5C15      		cp r21,r12
 4181 0408 00F0      		brlo .L340
 4182 040a 40E0      		ldi r20,lo8(0)
 4183               	.L340:
 4184 040c 4B0D      		add r20,r11
 4185 040e 31E0      		ldi r19,lo8(1)
 4186 0410 4B15      		cp r20,r11
 4187 0412 00F0      		brlo .L342
 4188 0414 30E0      		ldi r19,lo8(0)
 4189               	.L342:
 4190 0416 3A0D      		add r19,r10
 4191 0418 21E0      		ldi r18,lo8(1)
 4192 041a 3A15      		cp r19,r10
 4193 041c 00F0      		brlo .L344
 4194 041e 20E0      		ldi r18,lo8(0)
 4195               	.L344:
 4196 0420 290D      		add r18,r9
 4197 0422 91E0      		ldi r25,lo8(1)
 4198 0424 2915      		cp r18,r9
 4199 0426 00F0      		brlo .L346
 4200 0428 90E0      		ldi r25,lo8(0)
 4201               	.L346:
 4202 042a 980D      		add r25,r8
 4203 042c 81E0      		ldi r24,lo8(1)
 4204 042e 9815      		cp r25,r8
 4205 0430 00F0      		brlo .L348
 4206 0432 80E0      		ldi r24,lo8(0)
 4207               	.L348:
 4208 0434 272E      		mov r2,r23
 4209               	.LVL188:
 4210 0436 D62E      		mov r13,r22
 4211               	.LVL189:
 4212 0438 C52E      		mov r12,r21
 4213 043a B42E      		mov r11,r20
 4214 043c A32E      		mov r10,r19
 4215 043e 922E      		mov r9,r18
 4216 0440 892E      		mov r8,r25
 4217 0442 780E      		add r7,r24
 4218               	.LVL190:
 4219 0444 00C0      		rjmp .L370
 4220               	.LVL191:
 4221               	.L335:
 4222               	.LSM274:
 4223 0446 522D      		mov r21,r2
 4224 0448 505E      		subi r21,lo8(-(32))
 4225 044a 81E0      		ldi r24,lo8(1)
 4226 044c 5215      		cp r21,r2
 4227 044e 00F0      		brlo .L350
 4228 0450 80E0      		ldi r24,lo8(0)
 4229               	.L350:
 4230 0452 482E      		mov r4,r24
 4231               	.LVL192:
 4232 0454 4D0C      		add r4,r13
 4233 0456 81E0      		ldi r24,lo8(1)
 4234 0458 4D14      		cp r4,r13
 4235 045a 00F0      		brlo .L352
 4236 045c 80E0      		ldi r24,lo8(0)
 4237               	.L352:
 4238 045e 382E      		mov r3,r24
 4239 0460 3C0C      		add r3,r12
 4240 0462 41E0      		ldi r20,lo8(1)
 4241 0464 3C14      		cp r3,r12
 4242 0466 00F0      		brlo .L354
 4243 0468 40E0      		ldi r20,lo8(0)
 4244               	.L354:
 4245 046a 4B0D      		add r20,r11
 4246 046c 31E0      		ldi r19,lo8(1)
 4247 046e 4B15      		cp r20,r11
 4248 0470 00F0      		brlo .L356
 4249 0472 30E0      		ldi r19,lo8(0)
 4250               	.L356:
 4251 0474 3A0D      		add r19,r10
 4252 0476 21E0      		ldi r18,lo8(1)
 4253 0478 3A15      		cp r19,r10
 4254 047a 00F0      		brlo .L358
 4255 047c 20E0      		ldi r18,lo8(0)
 4256               	.L358:
 4257 047e 290D      		add r18,r9
 4258 0480 91E0      		ldi r25,lo8(1)
 4259 0482 2915      		cp r18,r9
 4260 0484 00F0      		brlo .L360
 4261 0486 90E0      		ldi r25,lo8(0)
 4262               	.L360:
 4263 0488 980D      		add r25,r8
 4264 048a 81E0      		ldi r24,lo8(1)
 4265 048c 9815      		cp r25,r8
 4266 048e 00F0      		brlo .L362
 4267 0490 80E0      		ldi r24,lo8(0)
 4268               	.L362:
 4269 0492 552E      		mov r5,r21
 4270 0494 4887      		std Y+8,r20
 4271 0496 3987      		std Y+9,r19
 4272 0498 2A87      		std Y+10,r18
 4273 049a 9B87      		std Y+11,r25
 4274 049c 682E      		mov r6,r24
 4275 049e 670C      		add r6,r7
 4276               	.LVL193:
 4277 04a0 252E      		mov r2,r21
 4278 04a2 D42C      		mov r13,r4
 4279 04a4 C32C      		mov r12,r3
 4280 04a6 B42E      		mov r11,r20
 4281 04a8 A32E      		mov r10,r19
 4282 04aa 922E      		mov r9,r18
 4283 04ac 892E      		mov r8,r25
 4284 04ae 762C      		mov r7,r6
 4285 04b0 00C0      		rjmp .L372
 4286               	.LVL194:
 4287               	.L369:
 4288               	.LSM275:
 4289 04b2 5524      		clr r5
 4290 04b4 4424      		clr r4
 4291 04b6 3324      		clr r3
 4292 04b8 1886      		std Y+8,__zero_reg__
 4293 04ba 1986      		std Y+9,__zero_reg__
 4294 04bc 1A86      		std Y+10,__zero_reg__
 4295 04be 1B86      		std Y+11,__zero_reg__
 4296 04c0 6624      		clr r6
 4297               	.L301:
 4298               	.LBE44:
 4299               	.LSM276:
 4300 04c2 252D      		mov r18,r5
 4301 04c4 342D      		mov r19,r4
 4302 04c6 432D      		mov r20,r3
 4303 04c8 5885      		ldd r21,Y+8
 4304 04ca 6985      		ldd r22,Y+9
 4305 04cc 7A85      		ldd r23,Y+10
 4306 04ce 8B85      		ldd r24,Y+11
 4307 04d0 962D      		mov r25,r6
 4308               	/* epilogue start */
 4309 04d2 6596      		adiw r28,21
 4310               	.LVL195:
 4311 04d4 0FB6      		in __tmp_reg__,__SREG__
 4312 04d6 F894      		cli
 4313 04d8 DEBF      		out __SP_H__,r29
 4314 04da 0FBE      		out __SREG__,__tmp_reg__
 4315 04dc CDBF      		out __SP_L__,r28
 4316               	.LVL196:
 4317 04de CF91      		pop r28
 4318 04e0 DF91      		pop r29
 4319               	.LVL197:
 4320 04e2 1F91      		pop r17
 4321 04e4 0F91      		pop r16
 4322 04e6 FF90      		pop r15
 4323 04e8 EF90      		pop r14
 4324 04ea DF90      		pop r13
 4325 04ec CF90      		pop r12
 4326 04ee BF90      		pop r11
 4327 04f0 AF90      		pop r10
 4328 04f2 9F90      		pop r9
 4329 04f4 8F90      		pop r8
 4330 04f6 7F90      		pop r7
 4331 04f8 6F90      		pop r6
 4332 04fa 5F90      		pop r5
 4333 04fc 4F90      		pop r4
 4334 04fe 3F90      		pop r3
 4335 0500 2F90      		pop r2
 4336 0502 0895      		ret
 4337               	.LFE32:
 4339               		.section	.text.fat_open,"ax",@progbits
 4340               	.global	fat_open
 4342               	fat_open:
 4343               	.LFB0:
 4344               	.LSM277:
 4345               	.LVL198:
 4346 0000 2F92      		push r2
 4347 0002 3F92      		push r3
 4348 0004 4F92      		push r4
 4349 0006 5F92      		push r5
 4350 0008 6F92      		push r6
 4351 000a 7F92      		push r7
 4352 000c 8F92      		push r8
 4353 000e 9F92      		push r9
 4354 0010 AF92      		push r10
 4355 0012 BF92      		push r11
 4356 0014 CF92      		push r12
 4357 0016 DF92      		push r13
 4358 0018 EF92      		push r14
 4359 001a FF92      		push r15
 4360 001c 0F93      		push r16
 4361 001e 1F93      		push r17
 4362 0020 DF93      		push r29
 4363 0022 CF93      		push r28
 4364 0024 CDB7      		in r28,__SP_L__
 4365 0026 DEB7      		in r29,__SP_H__
 4366 0028 C654      		subi r28,lo8(-(-70))
 4367 002a D040      		sbci r29,hi8(-(-70))
 4368 002c 0FB6      		in __tmp_reg__,__SREG__
 4369 002e F894      		cli
 4370 0030 DEBF      		out __SP_H__,r29
 4371 0032 0FBE      		out __SREG__,__tmp_reg__
 4372 0034 CDBF      		out __SP_L__,r28
 4373               	/* prologue: function */
 4374               	/* frame size = 70 */
 4375               	/* stack size = 88 */
 4376               	.L__stack_usage = 88
 4377 0036 1C01      		movw r2,r24
 4378               	.LSM278:
 4379 0038 0097      		sbiw r24,0
 4380 003a 01F4      		brne .+2
 4381 003c 00C0      		rjmp .L452
 4382               	.LVL199:
 4383               	.LSM279:
 4384 003e DC01      		movw r26,r24
 4385 0040 1496      		adiw r26,4
 4386 0042 8D91      		ld r24,X+
 4387 0044 9C91      		ld r25,X
 4388 0046 1597      		sbiw r26,4+1
 4389 0048 0097      		sbiw r24,0
 4390 004a 01F4      		brne .+2
 4391 004c 00C0      		rjmp .L452
 4392               	.LSM280:
 4393 004e 1696      		adiw r26,6
 4394 0050 8D91      		ld r24,X+
 4395 0052 9C91      		ld r25,X
 4396 0054 1797      		sbiw r26,6+1
 4397 0056 0097      		sbiw r24,0
 4398 0058 01F4      		brne .+2
 4399 005a 00C0      		rjmp .L452
 4400 005c 00C0      		rjmp .L456
 4401               	.LVL200:
 4402               	.L449:
 4403               	.LSM281:
 4404 005e E0E0      		ldi r30,lo8(fat_fs_handles)
 4405 0060 F0E0      		ldi r31,hi8(fat_fs_handles)
 4406 0062 8EE2      		ldi r24,lo8(46)
 4407 0064 DF01      		movw r26,r30
 4408 0066 1D92      		st X+,__zero_reg__
 4409 0068 8A95      	        dec r24
 4410 006a 01F4      		brne .-6
 4411               	.LSM282:
 4412 006c 3092 0000 		sts fat_fs_handles+1,r3
 4413 0070 2092 0000 		sts fat_fs_handles,r2
 4414               	.LVL201:
 4415               	.LBB48:
 4416               	.LBB49:
 4417               	.LSM283:
 4418 0074 F101      		movw r30,r2
 4419 0076 A184      		ldd r10,Z+9
 4420 0078 B284      		ldd r11,Z+10
 4421 007a C384      		ldd r12,Z+11
 4422 007c D484      		ldd r13,Z+12
 4423 007e 9501      		movw r18,r10
 4424 0080 A601      		movw r20,r12
 4425 0082 60E0      		ldi r22,lo8(0)
 4426 0084 70E0      		ldi r23,lo8(0)
 4427 0086 80E0      		ldi r24,lo8(0)
 4428 0088 90E0      		ldi r25,lo8(0)
 4429 008a 09E0      		ldi r16,lo8(9)
 4430 008c 0E94 0000 		call __ashldi3
 4431 0090 822E      		mov r8,r18
 4432 0092 3EA3      		std Y+38,r19
 4433 0094 4FA3      		std Y+39,r20
 4434 0096 58A7      		std Y+40,r21
 4435 0098 69A7      		std Y+41,r22
 4436 009a 7AA7      		std Y+42,r23
 4437 009c 8BA7      		std Y+43,r24
 4438 009e 2396      		adiw r28,66-63
 4439 00a0 9FAF      		std Y+63,r25
 4440 00a2 2397      		sbiw r28,66-63
 4441               	.LSM284:
 4442 00a4 255F      		subi r18,lo8(-(11))
 4443 00a6 31E0      		ldi r19,lo8(1)
 4444 00a8 2815      		cp r18,r8
 4445 00aa 00F0      		brlo .L377
 4446 00ac 30E0      		ldi r19,lo8(0)
 4447               	.L377:
 4448 00ae FEA1      		ldd r31,Y+38
 4449 00b0 3F0F      		add r19,r31
 4450 00b2 41E0      		ldi r20,lo8(1)
 4451 00b4 3F17      		cp r19,r31
 4452 00b6 00F0      		brlo .L379
 4453 00b8 40E0      		ldi r20,lo8(0)
 4454               	.L379:
 4455 00ba EFA0      		ldd r14,Y+39
 4456 00bc 4E0D      		add r20,r14
 4457 00be 51E0      		ldi r21,lo8(1)
 4458 00c0 4E15      		cp r20,r14
 4459 00c2 00F0      		brlo .L381
 4460 00c4 50E0      		ldi r21,lo8(0)
 4461               	.L381:
 4462 00c6 F8A4      		ldd r15,Y+40
 4463 00c8 5F0D      		add r21,r15
 4464 00ca 61E0      		ldi r22,lo8(1)
 4465 00cc 5F15      		cp r21,r15
 4466 00ce 00F0      		brlo .L383
 4467 00d0 60E0      		ldi r22,lo8(0)
 4468               	.L383:
 4469 00d2 09A5      		ldd r16,Y+41
 4470 00d4 600F      		add r22,r16
 4471 00d6 71E0      		ldi r23,lo8(1)
 4472 00d8 6017      		cp r22,r16
 4473 00da 00F0      		brlo .L385
 4474 00dc 70E0      		ldi r23,lo8(0)
 4475               	.L385:
 4476 00de 1AA5      		ldd r17,Y+42
 4477 00e0 710F      		add r23,r17
 4478 00e2 81E0      		ldi r24,lo8(1)
 4479 00e4 7117      		cp r23,r17
 4480 00e6 00F0      		brlo .L387
 4481 00e8 80E0      		ldi r24,lo8(0)
 4482               	.L387:
 4483 00ea 9BA5      		ldd r25,Y+43
 4484 00ec 890F      		add r24,r25
 4485 00ee 91E0      		ldi r25,lo8(1)
 4486 00f0 ABA5      		ldd r26,Y+43
 4487 00f2 8A17      		cp r24,r26
 4488 00f4 00F0      		brlo .L389
 4489 00f6 90E0      		ldi r25,lo8(0)
 4490               	.L389:
 4491 00f8 D101      		movw r26,r2
 4492 00fa ED91      		ld r30,X+
 4493 00fc FC91      		ld r31,X
 4494 00fe 2396      		adiw r28,66-63
 4495 0100 BFAD      		ldd r27,Y+63
 4496 0102 2397      		sbiw r28,66-63
 4497 0104 9B0F      		add r25,r27
 4498 0106 5E01      		movw r10,r28
 4499 0108 0894      		sec
 4500 010a A11C      		adc r10,__zero_reg__
 4501 010c B11C      		adc r11,__zero_reg__
 4502 010e 8501      		movw r16,r10
 4503 0110 A5E2      		ldi r26,lo8(37)
 4504 0112 EA2E      		mov r14,r26
 4505 0114 F12C      		mov r15,__zero_reg__
 4506 0116 0995      		icall
 4507 0118 8823      		tst r24
 4508 011a 01F4      		brne .+2
 4509 011c 00C0      		rjmp .L376
 4510               	.LSM285:
 4511 011e E981      		ldd r30,Y+1
 4512 0120 FA81      		ldd r31,Y+2
 4513 0122 FFAB      		std Y+55,r31
 4514 0124 EEAB      		std Y+54,r30
 4515               	.LVL202:
 4516               	.LSM286:
 4517 0126 D501      		movw r26,r10
 4518 0128 1396      		adiw r26,3
 4519 012a 0D90      		ld __tmp_reg__,X+
 4520 012c BC91      		ld r27,X
 4521 012e A02D      		mov r26,__tmp_reg__
 4522 0130 BDAB      		std Y+53,r27
 4523 0132 ACAB      		std Y+52,r26
 4524               	.LVL203:
 4525               	.LSM287:
 4526 0134 BB81      		ldd r27,Y+3
 4527 0136 BFAF      		std Y+63,r27
 4528               	.LVL204:
 4529               	.LSM288:
 4530 0138 9E80      		ldd r9,Y+6
 4531               	.LVL205:
 4532               	.LSM289:
 4533 013a F501      		movw r30,r10
 4534 013c 0680      		ldd __tmp_reg__,Z+6
 4535 013e F781      		ldd r31,Z+7
 4536 0140 E02D      		mov r30,__tmp_reg__
 4537 0142 2296      		adiw r28,64-62
 4538 0144 FFAF      		std Y+63,r31
 4539 0146 EEAF      		std Y+62,r30
 4540 0148 2297      		sbiw r28,64-62
 4541               	.LVL206:
 4542               	.LSM290:
 4543 014a D501      		movw r26,r10
 4544 014c 1896      		adiw r26,8
 4545 014e 8D91      		ld r24,X+
 4546 0150 9C91      		ld r25,X
 4547 0152 1997      		sbiw r26,8+1
 4548               	.LVL207:
 4549               	.LSM291:
 4550 0154 1B96      		adiw r26,11
 4551 0156 ED91      		ld r30,X+
 4552 0158 FC91      		ld r31,X
 4553 015a 1C97      		sbiw r26,11+1
 4554 015c FEAF      		std Y+62,r31
 4555 015e EDAF      		std Y+61,r30
 4556               	.LVL208:
 4557               	.LSM292:
 4558 0160 5596      		adiw r26,21
 4559 0162 ED90      		ld r14,X+
 4560 0164 FD90      		ld r15,X+
 4561 0166 0D91      		ld r16,X+
 4562 0168 1C91      		ld r17,X
 4563 016a 5897      		sbiw r26,21+3
 4564               	.LVL209:
 4565               	.LSM293:
 4566 016c 5996      		adiw r26,25
 4567 016e 2D91      		ld r18,X+
 4568 0170 3D91      		ld r19,X+
 4569 0172 4D91      		ld r20,X+
 4570 0174 5C91      		ld r21,X
 4571 0176 5C97      		sbiw r26,25+3
 4572 0178 29AF      		std Y+57,r18
 4573 017a 3AAF      		std Y+58,r19
 4574 017c 4BAF      		std Y+59,r20
 4575 017e 5CAF      		std Y+60,r21
 4576               	.LVL210:
 4577               	.LSM294:
 4578 0180 9196      		adiw r26,33
 4579 0182 2D91      		ld r18,X+
 4580 0184 3D91      		ld r19,X+
 4581 0186 4D91      		ld r20,X+
 4582 0188 5C91      		ld r21,X
 4583 018a 9497      		sbiw r26,33+3
 4584 018c 2796      		adiw r28,67-60
 4585 018e 2CAF      		std Y+60,r18
 4586 0190 3DAF      		std Y+61,r19
 4587 0192 4EAF      		std Y+62,r20
 4588 0194 5FAF      		std Y+63,r21
 4589 0196 2797      		sbiw r28,67-60
 4590               	.LVL211:
 4591               	.LSM295:
 4592 0198 E114      		cp r14,__zero_reg__
 4593 019a F104      		cpc r15,__zero_reg__
 4594 019c 0105      		cpc r16,__zero_reg__
 4595 019e 1105      		cpc r17,__zero_reg__
 4596 01a0 01F4      		brne .L390
 4597               	.LSM296:
 4598 01a2 0097      		sbiw r24,0
 4599 01a4 01F4      		brne .+2
 4600 01a6 00C0      		rjmp .L376
 4601               	.LSM297:
 4602 01a8 7C01      		movw r14,r24
 4603 01aa 00E0      		ldi r16,lo8(0)
 4604 01ac 10E0      		ldi r17,hi8(0)
 4605               	.LVL212:
 4606               	.L390:
 4607               	.LSM298:
 4608 01ae EDAD      		ldd r30,Y+61
 4609 01b0 FEAD      		ldd r31,Y+62
 4610 01b2 3097      		sbiw r30,0
 4611 01b4 01F0      		breq .L391
 4612               	.LSM299:
 4613 01b6 9F01      		movw r18,r30
 4614 01b8 40E0      		ldi r20,lo8(0)
 4615 01ba 50E0      		ldi r21,hi8(0)
 4616 01bc 29AF      		std Y+57,r18
 4617 01be 3AAF      		std Y+58,r19
 4618 01c0 4BAF      		std Y+59,r20
 4619 01c2 5CAF      		std Y+60,r21
 4620               	.LVL213:
 4621 01c4 00C0      		rjmp .L392
 4622               	.LVL214:
 4623               	.L391:
 4624               	.LSM300:
 4625 01c6 69AD      		ldd r22,Y+57
 4626 01c8 7AAD      		ldd r23,Y+58
 4627 01ca 8BAD      		ldd r24,Y+59
 4628 01cc 9CAD      		ldd r25,Y+60
 4629 01ce 6115      		cp r22,__zero_reg__
 4630 01d0 7105      		cpc r23,__zero_reg__
 4631 01d2 8105      		cpc r24,__zero_reg__
 4632 01d4 9105      		cpc r25,__zero_reg__
 4633 01d6 01F4      		brne .+2
 4634 01d8 00C0      		rjmp .L376
 4635               	.LVL215:
 4636               	.L392:
 4637               	.LSM301:
 4638 01da ECA9      		ldd r30,Y+52
 4639 01dc FDA9      		ldd r31,Y+53
 4640 01de CF01      		movw r24,r30
 4641 01e0 A0E0      		ldi r26,lo8(0)
 4642 01e2 B0E0      		ldi r27,hi8(0)
 4643 01e4 5701      		movw r10,r14
 4644 01e6 6801      		movw r12,r16
 4645               	.LVL216:
 4646 01e8 A81A      		sub r10,r24
 4647 01ea B90A      		sbc r11,r25
 4648 01ec CA0A      		sbc r12,r26
 4649 01ee DB0A      		sbc r13,r27
 4650               	.LSM302:
 4651 01f0 292D      		mov r18,r9
 4652 01f2 30E0      		ldi r19,lo8(0)
 4653 01f4 40E0      		ldi r20,lo8(0)
 4654 01f6 50E0      		ldi r21,hi8(0)
 4655 01f8 69AD      		ldd r22,Y+57
 4656 01fa 7AAD      		ldd r23,Y+58
 4657 01fc 8BAD      		ldd r24,Y+59
 4658 01fe 9CAD      		ldd r25,Y+60
 4659 0200 0E94 0000 		call __mulsi3
 4660 0204 A61A      		sub r10,r22
 4661 0206 B70A      		sbc r11,r23
 4662 0208 C80A      		sbc r12,r24
 4663 020a D90A      		sbc r13,r25
 4664               	.LSM303:
 4665 020c 8EA9      		ldd r24,Y+54
 4666 020e 9FA9      		ldd r25,Y+55
 4667 0210 0197      		sbiw r24,1
 4668 0212 2296      		adiw r28,64-62
 4669 0214 2EAD      		ldd r18,Y+62
 4670 0216 3FAD      		ldd r19,Y+63
 4671 0218 2297      		sbiw r28,64-62
 4672 021a B5E0      		ldi r27,5
 4673 021c 220F      	1:	lsl r18
 4674 021e 331F      		rol r19
 4675 0220 BA95      		dec r27
 4676 0222 01F4      		brne 1b
 4677 0224 820F      		add r24,r18
 4678 0226 931F      		adc r25,r19
 4679 0228 6EA9      		ldd r22,Y+54
 4680 022a 7FA9      		ldd r23,Y+55
 4681 022c 0E94 0000 		call __udivmodhi4
 4682 0230 80E0      		ldi r24,lo8(0)
 4683 0232 90E0      		ldi r25,hi8(0)
 4684               	.LSM304:
 4685 0234 A61A      		sub r10,r22
 4686 0236 B70A      		sbc r11,r23
 4687 0238 C80A      		sbc r12,r24
 4688 023a D90A      		sbc r13,r25
 4689               	.LSM305:
 4690 023c FFAD      		ldd r31,Y+63
 4691 023e 2F2F      		mov r18,r31
 4692 0240 30E0      		ldi r19,lo8(0)
 4693 0242 40E0      		ldi r20,lo8(0)
 4694 0244 50E0      		ldi r21,hi8(0)
 4695 0246 C601      		movw r24,r12
 4696 0248 B501      		movw r22,r10
 4697 024a 0E94 0000 		call __udivmodsi4
 4698 024e 2901      		movw r4,r18
 4699 0250 3A01      		movw r6,r20
 4700               	.LVL217:
 4701               	.LSM306:
 4702 0252 25EF      		ldi r18,lo8(4085)
 4703 0254 4216      		cp r4,r18
 4704 0256 2FE0      		ldi r18,hi8(4085)
 4705 0258 5206      		cpc r5,r18
 4706 025a 20E0      		ldi r18,hlo8(4085)
 4707 025c 6206      		cpc r6,r18
 4708 025e 20E0      		ldi r18,hhi8(4085)
 4709 0260 7206      		cpc r7,r18
 4710               	.LVL218:
 4711 0262 00F4      		brsh .+2
 4712 0264 00C0      		rjmp .L376
 4713               	.LSM307:
 4714 0266 35EF      		ldi r19,lo8(65525)
 4715 0268 4316      		cp r4,r19
 4716 026a 3FEF      		ldi r19,hi8(65525)
 4717 026c 5306      		cpc r5,r19
 4718 026e 30E0      		ldi r19,hlo8(65525)
 4719 0270 6306      		cpc r6,r19
 4720 0272 30E0      		ldi r19,hhi8(65525)
 4721 0274 7306      		cpc r7,r19
 4722 0276 00F4      		brsh .L393
 4723               	.LSM308:
 4724 0278 86E0      		ldi r24,lo8(6)
 4725 027a D101      		movw r26,r2
 4726 027c 1896      		adiw r26,8
 4727 027e 8C93      		st X,r24
 4728 0280 1897      		sbiw r26,8
 4729 0282 00C0      		rjmp .L394
 4730               	.L393:
 4731               	.LSM309:
 4732 0284 8BE0      		ldi r24,lo8(11)
 4733 0286 F101      		movw r30,r2
 4734 0288 8087      		std Z+8,r24
 4735               	.L394:
 4736               	.LVL219:
 4737               	.LSM310:
 4738 028a 8CE2      		ldi r24,lo8(44)
 4739 028c E0E0      		ldi r30,lo8(fat_fs_handles+2)
 4740 028e F0E0      		ldi r31,hi8(fat_fs_handles+2)
 4741 0290 DF01      		movw r26,r30
 4742 0292 1D92      		st X+,__zero_reg__
 4743 0294 8A95      	        dec r24
 4744 0296 01F4      		brne .-6
 4745               	.LSM311:
 4746 0298 4EA9      		ldd r20,Y+54
 4747 029a 5FA9      		ldd r21,Y+55
 4748 029c 9A01      		movw r18,r20
 4749 029e 40E0      		ldi r20,lo8(0)
 4750 02a0 50E0      		ldi r21,hi8(0)
 4751 02a2 60E0      		ldi r22,lo8(0)
 4752 02a4 70E0      		ldi r23,hi8(0)
 4753 02a6 CB01      		movw r24,r22
 4754 02a8 2CA7      		std Y+44,r18
 4755 02aa 3DA7      		std Y+45,r19
 4756 02ac 4EA7      		std Y+46,r20
 4757 02ae 5FA7      		std Y+47,r21
 4758 02b0 68AB      		std Y+48,r22
 4759 02b2 79AB      		std Y+49,r23
 4760 02b4 8AAB      		std Y+50,r24
 4761 02b6 9BAB      		std Y+51,r25
 4762 02b8 5701      		movw r10,r14
 4763 02ba 6801      		movw r12,r16
 4764 02bc 9701      		movw r18,r14
 4765 02be A601      		movw r20,r12
 4766 02c0 60E0      		ldi r22,lo8(0)
 4767 02c2 70E0      		ldi r23,lo8(0)
 4768 02c4 80E0      		ldi r24,lo8(0)
 4769 02c6 90E0      		ldi r25,lo8(0)
 4770 02c8 ACA4      		ldd r10,Y+44
 4771 02ca BDA4      		ldd r11,Y+45
 4772 02cc CC24      		clr r12
 4773 02ce DD24      		clr r13
 4774 02d0 EE24      		clr r14
 4775               	.LVL220:
 4776 02d2 FF24      		clr r15
 4777 02d4 00E0      		ldi r16,lo8(0)
 4778 02d6 10E0      		ldi r17,lo8(0)
 4779 02d8 0E94 0000 		call __muldi3
 4780               	.LVL221:
 4781 02dc 2093 0000 		sts fat_fs_handles+2,r18
 4782 02e0 3093 0000 		sts fat_fs_handles+3,r19
 4783 02e4 4093 0000 		sts fat_fs_handles+4,r20
 4784 02e8 5093 0000 		sts fat_fs_handles+5,r21
 4785 02ec 6093 0000 		sts fat_fs_handles+6,r22
 4786 02f0 7093 0000 		sts fat_fs_handles+7,r23
 4787 02f4 8093 0000 		sts fat_fs_handles+8,r24
 4788 02f8 9093 0000 		sts fat_fs_handles+9,r25
 4789               	.LSM312:
 4790 02fc ECA9      		ldd r30,Y+52
 4791 02fe FDA9      		ldd r31,Y+53
 4792 0300 9F01      		movw r18,r30
 4793 0302 40E0      		ldi r20,lo8(0)
 4794 0304 50E0      		ldi r21,lo8(0)
 4795 0306 60E0      		ldi r22,lo8(0)
 4796 0308 70E0      		ldi r23,lo8(0)
 4797 030a 80E0      		ldi r24,lo8(0)
 4798 030c 90E0      		ldi r25,lo8(0)
 4799 030e 0E94 0000 		call __muldi3
 4800               	.LSM313:
 4801 0312 820E      		add r8,r18
 4802 0314 88AE      		std Y+56,r8
 4803 0316 E1E0      		ldi r30,lo8(1)
 4804 0318 8216      		cp r8,r18
 4805 031a 00F0      		brlo .L395
 4806 031c E0E0      		ldi r30,lo8(0)
 4807               	.L395:
 4808 031e FEA1      		ldd r31,Y+38
 4809 0320 F30F      		add r31,r19
 4810 0322 21E0      		ldi r18,lo8(1)
 4811 0324 F317      		cp r31,r19
 4812 0326 00F0      		brlo .L396
 4813 0328 20E0      		ldi r18,lo8(0)
 4814               	.L396:
 4815 032a EF0F      		add r30,r31
 4816 032c EEA3      		std Y+38,r30
 4817 032e 31E0      		ldi r19,lo8(1)
 4818 0330 EF17      		cp r30,r31
 4819 0332 00F0      		brlo .L397
 4820 0334 30E0      		ldi r19,lo8(0)
 4821               	.L397:
 4822 0336 232B      		or r18,r19
 4823 0338 EFA1      		ldd r30,Y+39
 4824 033a E40F      		add r30,r20
 4825 033c 31E0      		ldi r19,lo8(1)
 4826 033e E417      		cp r30,r20
 4827 0340 00F0      		brlo .L398
 4828 0342 30E0      		ldi r19,lo8(0)
 4829               	.L398:
 4830 0344 2E0F      		add r18,r30
 4831 0346 2FA3      		std Y+39,r18
 4832 0348 21E0      		ldi r18,lo8(1)
 4833 034a FFA1      		ldd r31,Y+39
 4834 034c FE17      		cp r31,r30
 4835 034e 00F0      		brlo .L399
 4836 0350 20E0      		ldi r18,lo8(0)
 4837               	.L399:
 4838 0352 322B      		or r19,r18
 4839 0354 28A5      		ldd r18,Y+40
 4840 0356 250F      		add r18,r21
 4841 0358 41E0      		ldi r20,lo8(1)
 4842 035a 2517      		cp r18,r21
 4843 035c 00F0      		brlo .L400
 4844 035e 40E0      		ldi r20,lo8(0)
 4845               	.L400:
 4846 0360 320F      		add r19,r18
 4847 0362 38A7      		std Y+40,r19
 4848 0364 31E0      		ldi r19,lo8(1)
 4849 0366 E8A4      		ldd r14,Y+40
 4850 0368 E216      		cp r14,r18
 4851 036a 00F0      		brlo .L401
 4852 036c 30E0      		ldi r19,lo8(0)
 4853               	.L401:
 4854 036e 432B      		or r20,r19
 4855 0370 39A5      		ldd r19,Y+41
 4856 0372 360F      		add r19,r22
 4857 0374 21E0      		ldi r18,lo8(1)
 4858 0376 3617      		cp r19,r22
 4859 0378 00F0      		brlo .L402
 4860 037a 20E0      		ldi r18,lo8(0)
 4861               	.L402:
 4862 037c 430F      		add r20,r19
 4863 037e 49A7      		std Y+41,r20
 4864 0380 41E0      		ldi r20,lo8(1)
 4865 0382 F9A4      		ldd r15,Y+41
 4866 0384 F316      		cp r15,r19
 4867 0386 00F0      		brlo .L403
 4868 0388 40E0      		ldi r20,lo8(0)
 4869               	.L403:
 4870 038a 242B      		or r18,r20
 4871 038c 4AA5      		ldd r20,Y+42
 4872 038e 470F      		add r20,r23
 4873 0390 31E0      		ldi r19,lo8(1)
 4874 0392 4717      		cp r20,r23
 4875 0394 00F0      		brlo .L404
 4876 0396 30E0      		ldi r19,lo8(0)
 4877               	.L404:
 4878 0398 240F      		add r18,r20
 4879 039a 2AA7      		std Y+42,r18
 4880 039c 21E0      		ldi r18,lo8(1)
 4881 039e 0AA5      		ldd r16,Y+42
 4882 03a0 0417      		cp r16,r20
 4883 03a2 00F0      		brlo .L405
 4884 03a4 20E0      		ldi r18,lo8(0)
 4885               	.L405:
 4886 03a6 322B      		or r19,r18
 4887 03a8 2BA5      		ldd r18,Y+43
 4888 03aa 280F      		add r18,r24
 4889 03ac 41E0      		ldi r20,lo8(1)
 4890 03ae 2817      		cp r18,r24
 4891 03b0 00F0      		brlo .L406
 4892 03b2 40E0      		ldi r20,lo8(0)
 4893               	.L406:
 4894 03b4 320F      		add r19,r18
 4895 03b6 3BA7      		std Y+43,r19
 4896 03b8 81E0      		ldi r24,lo8(1)
 4897 03ba 3217      		cp r19,r18
 4898 03bc 00F0      		brlo .L407
 4899 03be 80E0      		ldi r24,lo8(0)
 4900               	.L407:
 4901 03c0 482B      		or r20,r24
 4902 03c2 2396      		adiw r28,66-63
 4903 03c4 1FAD      		ldd r17,Y+63
 4904 03c6 2397      		sbiw r28,66-63
 4905 03c8 910F      		add r25,r17
 4906 03ca 490F      		add r20,r25
 4907 03cc 4CAB      		std Y+52,r20
 4908               	.LSM314:
 4909 03ce 28AD      		ldd r18,Y+56
 4910 03d0 2093 0000 		sts fat_fs_handles+10,r18
 4911 03d4 3EA1      		ldd r19,Y+38
 4912 03d6 3093 0000 		sts fat_fs_handles+11,r19
 4913 03da 4FA1      		ldd r20,Y+39
 4914 03dc 4093 0000 		sts fat_fs_handles+12,r20
 4915 03e0 58A5      		ldd r21,Y+40
 4916 03e2 5093 0000 		sts fat_fs_handles+13,r21
 4917 03e6 69A5      		ldd r22,Y+41
 4918 03e8 6093 0000 		sts fat_fs_handles+14,r22
 4919 03ec 7AA5      		ldd r23,Y+42
 4920 03ee 7093 0000 		sts fat_fs_handles+15,r23
 4921 03f2 8BA5      		ldd r24,Y+43
 4922 03f4 8093 0000 		sts fat_fs_handles+16,r24
 4923 03f8 9CA9      		ldd r25,Y+52
 4924 03fa 9093 0000 		sts fat_fs_handles+17,r25
 4925               	.LSM315:
 4926 03fe A301      		movw r20,r6
 4927 0400 9201      		movw r18,r4
 4928 0402 2E5F      		subi r18,lo8(-(2))
 4929 0404 3F4F      		sbci r19,hi8(-(2))
 4930 0406 4F4F      		sbci r20,hlo8(-(2))
 4931 0408 5F4F      		sbci r21,hhi8(-(2))
 4932 040a D101      		movw r26,r2
 4933 040c 1896      		adiw r26,8
 4934 040e 1C91      		ld r17,X
 4935 0410 1897      		sbiw r26,8
 4936 0412 1630      		cpi r17,lo8(6)
 4937 0414 01F0      		breq .L453
 4938 0416 64E0      		ldi r22,lo8(4)
 4939 0418 70E0      		ldi r23,hi8(4)
 4940 041a 80E0      		ldi r24,hlo8(4)
 4941 041c 90E0      		ldi r25,hhi8(4)
 4942 041e 00C0      		rjmp .L408
 4943               	.L453:
 4944 0420 62E0      		ldi r22,lo8(2)
 4945 0422 70E0      		ldi r23,hi8(2)
 4946 0424 80E0      		ldi r24,hlo8(2)
 4947 0426 90E0      		ldi r25,hhi8(2)
 4948               	.L408:
 4949 0428 0E94 0000 		call __mulsi3
 4950 042c 6093 0000 		sts fat_fs_handles+18,r22
 4951 0430 7093 0000 		sts fat_fs_handles+18+1,r23
 4952 0434 8093 0000 		sts fat_fs_handles+18+2,r24
 4953 0438 9093 0000 		sts fat_fs_handles+18+3,r25
 4954               	.LSM316:
 4955 043c EEA9      		ldd r30,Y+54
 4956 043e FFA9      		ldd r31,Y+55
 4957 0440 F093 0000 		sts fat_fs_handles+22+1,r31
 4958 0444 E093 0000 		sts fat_fs_handles+22,r30
 4959               	.LSM317:
 4960 0448 FFAD      		ldd r31,Y+63
 4961 044a 2F2F      		mov r18,r31
 4962 044c 30E0      		ldi r19,lo8(0)
 4963 044e EEA8      		ldd r14,Y+54
 4964 0450 FFA8      		ldd r15,Y+55
 4965 0452 2E9D      		mul r18,r14
 4966 0454 C001      		movw r24,r0
 4967 0456 2F9D      		mul r18,r15
 4968 0458 900D      		add r25,r0
 4969 045a 3E9D      		mul r19,r14
 4970 045c 900D      		add r25,r0
 4971 045e 1124      		clr r1
 4972 0460 9093 0000 		sts fat_fs_handles+24+1,r25
 4973 0464 8093 0000 		sts fat_fs_handles+24,r24
 4974               	.LSM318:
 4975 0468 1630      		cpi r17,lo8(6)
 4976 046a 01F0      		breq .+2
 4977 046c 00C0      		rjmp .L409
 4978               	.LSM319:
 4979 046e 2CA5      		ldd r18,Y+44
 4980 0470 3DA5      		ldd r19,Y+45
 4981 0472 40E0      		ldi r20,lo8(0)
 4982 0474 50E0      		ldi r21,lo8(0)
 4983 0476 60E0      		ldi r22,lo8(0)
 4984 0478 70E0      		ldi r23,lo8(0)
 4985 047a 80E0      		ldi r24,lo8(0)
 4986 047c 90E0      		ldi r25,lo8(0)
 4987 047e A92C      		mov r10,r9
 4988 0480 BB24      		clr r11
 4989 0482 CC24      		clr r12
 4990 0484 DD24      		clr r13
 4991 0486 EE24      		clr r14
 4992 0488 FF24      		clr r15
 4993 048a 00E0      		ldi r16,lo8(0)
 4994 048c 10E0      		ldi r17,lo8(0)
 4995 048e 0E94 0000 		call __muldi3
 4996 0492 0DAD      		ldd r16,Y+61
 4997 0494 1EAD      		ldd r17,Y+62
 4998 0496 5801      		movw r10,r16
 4999 0498 00E0      		ldi r16,lo8(0)
 5000 049a 10E0      		ldi r17,lo8(0)
 5001 049c 0E94 0000 		call __muldi3
 5002 04a0 A22E      		mov r10,r18
 5003               	.LSM320:
 5004 04a2 18AD      		ldd r17,Y+56
 5005 04a4 A10E      		add r10,r17
 5006 04a6 21E0      		ldi r18,lo8(1)
 5007 04a8 A116      		cp r10,r17
 5008 04aa 00F0      		brlo .L410
 5009 04ac 20E0      		ldi r18,lo8(0)
 5010               	.L410:
 5011 04ae AEA1      		ldd r26,Y+38
 5012 04b0 3A0F      		add r19,r26
 5013 04b2 11E0      		ldi r17,lo8(1)
 5014 04b4 3A17      		cp r19,r26
 5015 04b6 00F0      		brlo .L411
 5016 04b8 10E0      		ldi r17,lo8(0)
 5017               	.L411:
 5018 04ba 222E      		mov r2,r18
 5019               	.LVL222:
 5020 04bc 230E      		add r2,r19
 5021 04be 21E0      		ldi r18,lo8(1)
 5022 04c0 2316      		cp r2,r19
 5023 04c2 00F0      		brlo .L412
 5024 04c4 20E0      		ldi r18,lo8(0)
 5025               	.L412:
 5026 04c6 122B      		or r17,r18
 5027 04c8 BFA1      		ldd r27,Y+39
 5028 04ca 4B0F      		add r20,r27
 5029 04cc 31E0      		ldi r19,lo8(1)
 5030 04ce 4B17      		cp r20,r27
 5031 04d0 00F0      		brlo .L413
 5032 04d2 30E0      		ldi r19,lo8(0)
 5033               	.L413:
 5034 04d4 140F      		add r17,r20
 5035 04d6 21E0      		ldi r18,lo8(1)
 5036 04d8 1417      		cp r17,r20
 5037 04da 00F0      		brlo .L414
 5038 04dc 20E0      		ldi r18,lo8(0)
 5039               	.L414:
 5040 04de 322B      		or r19,r18
 5041 04e0 E8A5      		ldd r30,Y+40
 5042 04e2 5E0F      		add r21,r30
 5043 04e4 21E0      		ldi r18,lo8(1)
 5044 04e6 5E17      		cp r21,r30
 5045 04e8 00F0      		brlo .L415
 5046 04ea 20E0      		ldi r18,lo8(0)
 5047               	.L415:
 5048 04ec F32E      		mov r15,r19
 5049 04ee F50E      		add r15,r21
 5050 04f0 31E0      		ldi r19,lo8(1)
 5051 04f2 F516      		cp r15,r21
 5052 04f4 00F0      		brlo .L416
 5053 04f6 30E0      		ldi r19,lo8(0)
 5054               	.L416:
 5055 04f8 232B      		or r18,r19
 5056 04fa F9A5      		ldd r31,Y+41
 5057 04fc 6F0F      		add r22,r31
 5058 04fe 31E0      		ldi r19,lo8(1)
 5059 0500 6F17      		cp r22,r31
 5060 0502 00F0      		brlo .L417
 5061 0504 30E0      		ldi r19,lo8(0)
 5062               	.L417:
 5063 0506 E22E      		mov r14,r18
 5064 0508 E60E      		add r14,r22
 5065 050a 21E0      		ldi r18,lo8(1)
 5066 050c E616      		cp r14,r22
 5067 050e 00F0      		brlo .L418
 5068 0510 20E0      		ldi r18,lo8(0)
 5069               	.L418:
 5070 0512 322B      		or r19,r18
 5071 0514 0AA5      		ldd r16,Y+42
 5072 0516 700F      		add r23,r16
 5073 0518 21E0      		ldi r18,lo8(1)
 5074 051a 7017      		cp r23,r16
 5075 051c 00F0      		brlo .L419
 5076 051e 20E0      		ldi r18,lo8(0)
 5077               	.L419:
 5078 0520 D32E      		mov r13,r19
 5079 0522 D70E      		add r13,r23
 5080 0524 31E0      		ldi r19,lo8(1)
 5081 0526 D716      		cp r13,r23
 5082 0528 00F0      		brlo .L420
 5083 052a 30E0      		ldi r19,lo8(0)
 5084               	.L420:
 5085 052c 232B      		or r18,r19
 5086 052e 3BA5      		ldd r19,Y+43
 5087 0530 830F      		add r24,r19
 5088 0532 31E0      		ldi r19,lo8(1)
 5089 0534 4BA5      		ldd r20,Y+43
 5090 0536 8417      		cp r24,r20
 5091 0538 00F0      		brlo .L421
 5092 053a 30E0      		ldi r19,lo8(0)
 5093               	.L421:
 5094 053c C22E      		mov r12,r18
 5095 053e C80E      		add r12,r24
 5096 0540 21E0      		ldi r18,lo8(1)
 5097 0542 C816      		cp r12,r24
 5098 0544 00F0      		brlo .L422
 5099 0546 20E0      		ldi r18,lo8(0)
 5100               	.L422:
 5101 0548 B32E      		mov r11,r19
 5102 054a B22A      		or r11,r18
 5103 054c 5CA9      		ldd r21,Y+52
 5104 054e 950F      		add r25,r21
 5105 0550 B90E      		add r11,r25
 5106               	.LSM321:
 5107 0552 A092 0000 		sts fat_fs_handles+34,r10
 5108 0556 2092 0000 		sts fat_fs_handles+35,r2
 5109 055a 1093 0000 		sts fat_fs_handles+36,r17
 5110 055e F092 0000 		sts fat_fs_handles+37,r15
 5111 0562 E092 0000 		sts fat_fs_handles+38,r14
 5112 0566 D092 0000 		sts fat_fs_handles+39,r13
 5113 056a C092 0000 		sts fat_fs_handles+40,r12
 5114 056e B092 0000 		sts fat_fs_handles+41,r11
 5115               	.LSM322:
 5116 0572 2296      		adiw r28,64-62
 5117 0574 EEAD      		ldd r30,Y+62
 5118 0576 FFAD      		ldd r31,Y+63
 5119 0578 2297      		sbiw r28,64-62
 5120 057a 9F01      		movw r18,r30
 5121 057c 40E0      		ldi r20,lo8(0)
 5122 057e 50E0      		ldi r21,lo8(0)
 5123 0580 60E0      		ldi r22,lo8(0)
 5124 0582 70E0      		ldi r23,lo8(0)
 5125 0584 80E0      		ldi r24,lo8(0)
 5126 0586 90E0      		ldi r25,lo8(0)
 5127 0588 05E0      		ldi r16,lo8(5)
 5128 058a 0E94 0000 		call __ashldi3
 5129               	.LSM323:
 5130 058e 2A0D      		add r18,r10
 5131 0590 A1E0      		ldi r26,lo8(1)
 5132 0592 2A15      		cp r18,r10
 5133 0594 00F0      		brlo .L423
 5134 0596 A0E0      		ldi r26,lo8(0)
 5135               	.L423:
 5136 0598 320D      		add r19,r2
 5137 059a F1E0      		ldi r31,lo8(1)
 5138 059c 3215      		cp r19,r2
 5139 059e 00F0      		brlo .L424
 5140 05a0 F0E0      		ldi r31,lo8(0)
 5141               	.L424:
 5142 05a2 A30F      		add r26,r19
 5143 05a4 E1E0      		ldi r30,lo8(1)
 5144 05a6 A317      		cp r26,r19
 5145 05a8 00F0      		brlo .L425
 5146 05aa E0E0      		ldi r30,lo8(0)
 5147               	.L425:
 5148 05ac FE2B      		or r31,r30
 5149 05ae 410F      		add r20,r17
 5150 05b0 E1E0      		ldi r30,lo8(1)
 5151 05b2 4117      		cp r20,r17
 5152 05b4 00F0      		brlo .L426
 5153 05b6 E0E0      		ldi r30,lo8(0)
 5154               	.L426:
 5155 05b8 F40F      		add r31,r20
 5156 05ba 31E0      		ldi r19,lo8(1)
 5157 05bc F417      		cp r31,r20
 5158 05be 00F0      		brlo .L427
 5159 05c0 30E0      		ldi r19,lo8(0)
 5160               	.L427:
 5161 05c2 E32B      		or r30,r19
 5162 05c4 5F0D      		add r21,r15
 5163 05c6 31E0      		ldi r19,lo8(1)
 5164 05c8 5F15      		cp r21,r15
 5165 05ca 00F0      		brlo .L428
 5166 05cc 30E0      		ldi r19,lo8(0)
 5167               	.L428:
 5168 05ce E50F      		add r30,r21
 5169 05d0 41E0      		ldi r20,lo8(1)
 5170 05d2 E517      		cp r30,r21
 5171 05d4 00F0      		brlo .L429
 5172 05d6 40E0      		ldi r20,lo8(0)
 5173               	.L429:
 5174 05d8 342B      		or r19,r20
 5175 05da 6E0D      		add r22,r14
 5176 05dc 41E0      		ldi r20,lo8(1)
 5177 05de 6E15      		cp r22,r14
 5178 05e0 00F0      		brlo .L430
 5179 05e2 40E0      		ldi r20,lo8(0)
 5180               	.L430:
 5181 05e4 B32F      		mov r27,r19
 5182 05e6 B60F      		add r27,r22
 5183 05e8 31E0      		ldi r19,lo8(1)
 5184 05ea B617      		cp r27,r22
 5185 05ec 00F0      		brlo .L431
 5186 05ee 30E0      		ldi r19,lo8(0)
 5187               	.L431:
 5188 05f0 432B      		or r20,r19
 5189 05f2 7D0D      		add r23,r13
 5190 05f4 31E0      		ldi r19,lo8(1)
 5191 05f6 7D15      		cp r23,r13
 5192 05f8 00F0      		brlo .L432
 5193 05fa 30E0      		ldi r19,lo8(0)
 5194               	.L432:
 5195 05fc 470F      		add r20,r23
 5196 05fe 51E0      		ldi r21,lo8(1)
 5197 0600 4717      		cp r20,r23
 5198 0602 00F0      		brlo .L433
 5199 0604 50E0      		ldi r21,lo8(0)
 5200               	.L433:
 5201 0606 352B      		or r19,r21
 5202 0608 5C2D      		mov r21,r12
 5203 060a 580F      		add r21,r24
 5204 060c 61E0      		ldi r22,lo8(1)
 5205 060e 5C15      		cp r21,r12
 5206 0610 00F0      		brlo .L434
 5207 0612 60E0      		ldi r22,lo8(0)
 5208               	.L434:
 5209 0614 350F      		add r19,r21
 5210 0616 81E0      		ldi r24,lo8(1)
 5211 0618 3517      		cp r19,r21
 5212 061a 00F0      		brlo .L435
 5213 061c 80E0      		ldi r24,lo8(0)
 5214               	.L435:
 5215 061e 862B      		or r24,r22
 5216 0620 B90E      		add r11,r25
 5217 0622 8B0D      		add r24,r11
 5218               	.LSM324:
 5219 0624 2093 0000 		sts fat_fs_handles+26,r18
 5220 0628 A093 0000 		sts fat_fs_handles+27,r26
 5221 062c F093 0000 		sts fat_fs_handles+28,r31
 5222 0630 E093 0000 		sts fat_fs_handles+29,r30
 5223 0634 B093 0000 		sts fat_fs_handles+30,r27
 5224 0638 4093 0000 		sts fat_fs_handles+31,r20
 5225 063c 3093 0000 		sts fat_fs_handles+32,r19
 5226 0640 8093 0000 		sts fat_fs_handles+33,r24
 5227 0644 00C0      		rjmp .L455
 5228               	.LVL223:
 5229               	.L409:
 5230               	.LSM325:
 5231 0646 2CA5      		ldd r18,Y+44
 5232 0648 3DA5      		ldd r19,Y+45
 5233 064a 40E0      		ldi r20,lo8(0)
 5234 064c 50E0      		ldi r21,lo8(0)
 5235 064e 60E0      		ldi r22,lo8(0)
 5236 0650 70E0      		ldi r23,lo8(0)
 5237 0652 80E0      		ldi r24,lo8(0)
 5238 0654 90E0      		ldi r25,lo8(0)
 5239 0656 A92C      		mov r10,r9
 5240 0658 BB24      		clr r11
 5241 065a CC24      		clr r12
 5242 065c DD24      		clr r13
 5243 065e EE24      		clr r14
 5244 0660 FF24      		clr r15
 5245 0662 00E0      		ldi r16,lo8(0)
 5246 0664 10E0      		ldi r17,lo8(0)
 5247 0666 0E94 0000 		call __muldi3
 5248 066a E9AC      		ldd r14,Y+57
 5249 066c FAAC      		ldd r15,Y+58
 5250 066e 0BAD      		ldd r16,Y+59
 5251 0670 1CAD      		ldd r17,Y+60
 5252 0672 1701      		movw r2,r14
 5253 0674 2801      		movw r4,r16
 5254               	.LVL224:
 5255 0676 5701      		movw r10,r14
 5256 0678 6201      		movw r12,r4
 5257 067a EE24      		clr r14
 5258 067c FF24      		clr r15
 5259 067e 00E0      		ldi r16,lo8(0)
 5260 0680 10E0      		ldi r17,lo8(0)
 5261 0682 0E94 0000 		call __muldi3
 5262               	.LSM326:
 5263 0686 E8AD      		ldd r30,Y+56
 5264 0688 E20F      		add r30,r18
 5265 068a F1E0      		ldi r31,lo8(1)
 5266 068c E217      		cp r30,r18
 5267 068e 00F0      		brlo .L436
 5268 0690 F0E0      		ldi r31,lo8(0)
 5269               	.L436:
 5270 0692 AEA1      		ldd r26,Y+38
 5271 0694 A30F      		add r26,r19
 5272 0696 21E0      		ldi r18,lo8(1)
 5273 0698 A317      		cp r26,r19
 5274 069a 00F0      		brlo .L437
 5275 069c 20E0      		ldi r18,lo8(0)
 5276               	.L437:
 5277 069e FA0F      		add r31,r26
 5278 06a0 31E0      		ldi r19,lo8(1)
 5279 06a2 FA17      		cp r31,r26
 5280 06a4 00F0      		brlo .L438
 5281 06a6 30E0      		ldi r19,lo8(0)
 5282               	.L438:
 5283 06a8 232B      		or r18,r19
 5284 06aa AFA1      		ldd r26,Y+39
 5285 06ac A40F      		add r26,r20
 5286 06ae 31E0      		ldi r19,lo8(1)
 5287 06b0 A417      		cp r26,r20
 5288 06b2 00F0      		brlo .L439
 5289 06b4 30E0      		ldi r19,lo8(0)
 5290               	.L439:
 5291 06b6 B22F      		mov r27,r18
 5292 06b8 BA0F      		add r27,r26
 5293 06ba 21E0      		ldi r18,lo8(1)
 5294 06bc BA17      		cp r27,r26
 5295 06be 00F0      		brlo .L440
 5296 06c0 20E0      		ldi r18,lo8(0)
 5297               	.L440:
 5298 06c2 322B      		or r19,r18
 5299 06c4 48A5      		ldd r20,Y+40
 5300 06c6 450F      		add r20,r21
 5301 06c8 21E0      		ldi r18,lo8(1)
 5302 06ca 4517      		cp r20,r21
 5303 06cc 00F0      		brlo .L441
 5304 06ce 20E0      		ldi r18,lo8(0)
 5305               	.L441:
 5306 06d0 A32F      		mov r26,r19
 5307 06d2 A40F      		add r26,r20
 5308 06d4 31E0      		ldi r19,lo8(1)
 5309 06d6 A417      		cp r26,r20
 5310 06d8 00F0      		brlo .L442
 5311 06da 30E0      		ldi r19,lo8(0)
 5312               	.L442:
 5313 06dc 232B      		or r18,r19
 5314 06de 49A5      		ldd r20,Y+41
 5315 06e0 460F      		add r20,r22
 5316 06e2 31E0      		ldi r19,lo8(1)
 5317 06e4 4617      		cp r20,r22
 5318 06e6 00F0      		brlo .L443
 5319 06e8 30E0      		ldi r19,lo8(0)
 5320               	.L443:
 5321 06ea 622F      		mov r22,r18
 5322 06ec 640F      		add r22,r20
 5323 06ee 21E0      		ldi r18,lo8(1)
 5324 06f0 6417      		cp r22,r20
 5325 06f2 00F0      		brlo .L444
 5326 06f4 20E0      		ldi r18,lo8(0)
 5327               	.L444:
 5328 06f6 322B      		or r19,r18
 5329 06f8 4AA5      		ldd r20,Y+42
 5330 06fa 470F      		add r20,r23
 5331 06fc 21E0      		ldi r18,lo8(1)
 5332 06fe 4717      		cp r20,r23
 5333 0700 00F0      		brlo .L445
 5334 0702 20E0      		ldi r18,lo8(0)
 5335               	.L445:
 5336 0704 340F      		add r19,r20
 5337 0706 51E0      		ldi r21,lo8(1)
 5338 0708 3417      		cp r19,r20
 5339 070a 00F0      		brlo .L446
 5340 070c 50E0      		ldi r21,lo8(0)
 5341               	.L446:
 5342 070e 252B      		or r18,r21
 5343 0710 4BA5      		ldd r20,Y+43
 5344 0712 480F      		add r20,r24
 5345 0714 71E0      		ldi r23,lo8(1)
 5346 0716 4817      		cp r20,r24
 5347 0718 00F0      		brlo .L447
 5348 071a 70E0      		ldi r23,lo8(0)
 5349               	.L447:
 5350 071c 522F      		mov r21,r18
 5351 071e 540F      		add r21,r20
 5352 0720 81E0      		ldi r24,lo8(1)
 5353 0722 5417      		cp r21,r20
 5354 0724 00F0      		brlo .L448
 5355 0726 80E0      		ldi r24,lo8(0)
 5356               	.L448:
 5357 0728 872B      		or r24,r23
 5358 072a FCA8      		ldd r15,Y+52
 5359 072c 9F0D      		add r25,r15
 5360 072e 890F      		add r24,r25
 5361               	.LSM327:
 5362 0730 E093 0000 		sts fat_fs_handles+26,r30
 5363 0734 F093 0000 		sts fat_fs_handles+27,r31
 5364 0738 B093 0000 		sts fat_fs_handles+28,r27
 5365 073c A093 0000 		sts fat_fs_handles+29,r26
 5366 0740 6093 0000 		sts fat_fs_handles+30,r22
 5367 0744 3093 0000 		sts fat_fs_handles+31,r19
 5368 0748 5093 0000 		sts fat_fs_handles+32,r21
 5369 074c 8093 0000 		sts fat_fs_handles+33,r24
 5370               	.LSM328:
 5371 0750 2796      		adiw r28,67-60
 5372 0752 0CAD      		ldd r16,Y+60
 5373 0754 1DAD      		ldd r17,Y+61
 5374 0756 2EAD      		ldd r18,Y+62
 5375 0758 3FAD      		ldd r19,Y+63
 5376 075a 2797      		sbiw r28,67-60
 5377 075c 0093 0000 		sts fat_fs_handles+42,r16
 5378 0760 1093 0000 		sts fat_fs_handles+42+1,r17
 5379 0764 2093 0000 		sts fat_fs_handles+42+2,r18
 5380 0768 3093 0000 		sts fat_fs_handles+42+3,r19
 5381               	.L455:
 5382 076c 20E0      		ldi r18,lo8(fat_fs_handles)
 5383 076e 30E0      		ldi r19,hi8(fat_fs_handles)
 5384 0770 00C0      		rjmp .L374
 5385               	.LVL225:
 5386               	.L376:
 5387               	.LBE49:
 5388               	.LBE48:
 5389               	.LSM329:
 5390 0772 1092 0000 		sts fat_fs_handles+1,__zero_reg__
 5391 0776 1092 0000 		sts fat_fs_handles,__zero_reg__
 5392               	.LVL226:
 5393               	.L452:
 5394               	.LSM330:
 5395 077a 20E0      		ldi r18,lo8(0)
 5396 077c 30E0      		ldi r19,hi8(0)
 5397               	.LVL227:
 5398               	.L374:
 5399               	.LSM331:
 5400 077e C901      		movw r24,r18
 5401               	/* epilogue start */
 5402 0780 CA5B      		subi r28,lo8(-(70))
 5403 0782 DF4F      		sbci r29,hi8(-(70))
 5404 0784 0FB6      		in __tmp_reg__,__SREG__
 5405 0786 F894      		cli
 5406 0788 DEBF      		out __SP_H__,r29
 5407 078a 0FBE      		out __SREG__,__tmp_reg__
 5408 078c CDBF      		out __SP_L__,r28
 5409 078e CF91      		pop r28
 5410 0790 DF91      		pop r29
 5411 0792 1F91      		pop r17
 5412 0794 0F91      		pop r16
 5413 0796 FF90      		pop r15
 5414 0798 EF90      		pop r14
 5415 079a DF90      		pop r13
 5416 079c CF90      		pop r12
 5417 079e BF90      		pop r11
 5418 07a0 AF90      		pop r10
 5419 07a2 9F90      		pop r9
 5420 07a4 8F90      		pop r8
 5421 07a6 7F90      		pop r7
 5422 07a8 6F90      		pop r6
 5423 07aa 5F90      		pop r5
 5424 07ac 4F90      		pop r4
 5425 07ae 3F90      		pop r3
 5426 07b0 2F90      		pop r2
 5427 07b2 0895      		ret
 5428               	.LVL228:
 5429               	.L456:
 5430               	.LSM332:
 5431 07b4 8091 0000 		lds r24,fat_fs_handles
 5432 07b8 9091 0000 		lds r25,fat_fs_handles+1
 5433 07bc 0097      		sbiw r24,0
 5434 07be 01F4      		brne .L452
 5435 07c0 00C0      		rjmp .L449
 5436               	.LFE0:
 5438               		.section	.text.fat_close,"ax",@progbits
 5439               	.global	fat_close
 5441               	fat_close:
 5442               	.LFB1:
 5443               	.LSM333:
 5444               	.LVL229:
 5445               	/* prologue: function */
 5446               	/* frame size = 0 */
 5447               	/* stack size = 0 */
 5448               	.L__stack_usage = 0
 5449               	.LSM334:
 5450 0000 0097      		sbiw r24,0
 5451 0002 01F0      		breq .L457
 5452               	.LSM335:
 5453 0004 FC01      		movw r30,r24
 5454 0006 1182      		std Z+1,__zero_reg__
 5455 0008 1082      		st Z,__zero_reg__
 5456               	.L457:
 5457 000a 0895      		ret
 5458               	.LFE1:
 5460               		.section	.text.fat_open_file,"ax",@progbits
 5461               	.global	fat_open_file
 5463               	fat_open_file:
 5464               	.LFB11:
 5465               	.LSM336:
 5466               	.LVL230:
 5467 0000 CF93      		push r28
 5468 0002 DF93      		push r29
 5469               	/* prologue: function */
 5470               	/* frame size = 0 */
 5471               	/* stack size = 2 */
 5472               	.L__stack_usage = 2
 5473 0004 DB01      		movw r26,r22
 5474               	.LSM337:
 5475 0006 0097      		sbiw r24,0
 5476 0008 01F0      		breq .L466
 5477               	.LSM338:
 5478 000a 1097      		sbiw r26,0
 5479 000c 01F0      		breq .L466
 5480 000e 9096      		adiw r26,32
 5481 0010 2C91      		ld r18,X
 5482 0012 9097      		sbiw r26,32
 5483 0014 24FD      		sbrc r18,4
 5484 0016 00C0      		rjmp .L466
 5485 0018 00C0      		rjmp .L469
 5486               	.LVL231:
 5487               	.L463:
 5488               	.LSM339:
 5489 001a C0E0      		ldi r28,lo8(fat_file_handles+2)
 5490 001c D0E0      		ldi r29,hi8(fat_file_handles+2)
 5491 001e FD01      		movw r30,r26
 5492 0020 21E3      		ldi r18,lo8(49)
 5493               	.L462:
 5494 0022 0190      		ld r0,Z+
 5495 0024 0992      		st Y+,r0
 5496 0026 2150      		subi r18,lo8(-(-1))
 5497 0028 01F4      		brne .L462
 5498               	.LSM340:
 5499 002a 9093 0000 		sts fat_file_handles+1,r25
 5500 002e 8093 0000 		sts fat_file_handles,r24
 5501               	.LSM341:
 5502 0032 E0E0      		ldi r30,lo8(fat_file_handles+51)
 5503 0034 F0E0      		ldi r31,hi8(fat_file_handles+51)
 5504 0036 1092 0000 		sts fat_file_handles+51,__zero_reg__
 5505 003a 1182      		std Z+1,__zero_reg__
 5506 003c 1282      		std Z+2,__zero_reg__
 5507 003e 1382      		std Z+3,__zero_reg__
 5508 0040 1482      		std Z+4,__zero_reg__
 5509 0042 1582      		std Z+5,__zero_reg__
 5510 0044 1682      		std Z+6,__zero_reg__
 5511 0046 1782      		std Z+7,__zero_reg__
 5512               	.LSM342:
 5513 0048 9196      		adiw r26,33
 5514 004a 2D91      		ld r18,X+
 5515 004c 3D91      		ld r19,X+
 5516 004e 4D91      		ld r20,X+
 5517 0050 5C91      		ld r21,X
 5518 0052 9497      		sbiw r26,33+3
 5519 0054 2093 0000 		sts fat_file_handles+59,r18
 5520 0058 3093 0000 		sts fat_file_handles+59+1,r19
 5521 005c 4093 0000 		sts fat_file_handles+59+2,r20
 5522 0060 5093 0000 		sts fat_file_handles+59+3,r21
 5523               	.LSM343:
 5524 0064 9F01      		movw r18,r30
 5525 0066 2353      		subi r18,lo8(-(-51))
 5526 0068 3040      		sbci r19,hi8(-(-51))
 5527 006a 00C0      		rjmp .L460
 5528               	.LVL232:
 5529               	.L466:
 5530               	.LSM344:
 5531 006c 20E0      		ldi r18,lo8(0)
 5532 006e 30E0      		ldi r19,hi8(0)
 5533               	.L460:
 5534               	.LSM345:
 5535 0070 C901      		movw r24,r18
 5536               	.LVL233:
 5537               	/* epilogue start */
 5538 0072 DF91      		pop r29
 5539 0074 CF91      		pop r28
 5540 0076 0895      		ret
 5541               	.LVL234:
 5542               	.L469:
 5543               	.LSM346:
 5544 0078 2091 0000 		lds r18,fat_file_handles
 5545 007c 3091 0000 		lds r19,fat_file_handles+1
 5546 0080 2115      		cp r18,__zero_reg__
 5547 0082 3105      		cpc r19,__zero_reg__
 5548 0084 01F4      		brne .L466
 5549 0086 00C0      		rjmp .L463
 5550               	.LFE11:
 5552               		.section	.text.fat_close_file,"ax",@progbits
 5553               	.global	fat_close_file
 5555               	fat_close_file:
 5556               	.LFB12:
 5557               	.LSM347:
 5558               	.LVL235:
 5559               	/* prologue: function */
 5560               	/* frame size = 0 */
 5561               	/* stack size = 0 */
 5562               	.L__stack_usage = 0
 5563               	.LSM348:
 5564 0000 0097      		sbiw r24,0
 5565 0002 01F0      		breq .L470
 5566               	.LSM349:
 5567 0004 FC01      		movw r30,r24
 5568 0006 1182      		std Z+1,__zero_reg__
 5569 0008 1082      		st Z,__zero_reg__
 5570               	.L470:
 5571 000a 0895      		ret
 5572               	.LFE12:
 5574               		.section	.text.fat_read_file,"ax",@progbits
 5575               	.global	fat_read_file
 5577               	fat_read_file:
 5578               	.LFB13:
 5579               	.LSM350:
 5580               	.LVL236:
 5581 0000 2F92      		push r2
 5582 0002 3F92      		push r3
 5583 0004 4F92      		push r4
 5584 0006 5F92      		push r5
 5585 0008 6F92      		push r6
 5586 000a 7F92      		push r7
 5587 000c 8F92      		push r8
 5588 000e 9F92      		push r9
 5589 0010 AF92      		push r10
 5590 0012 BF92      		push r11
 5591 0014 CF92      		push r12
 5592 0016 DF92      		push r13
 5593 0018 EF92      		push r14
 5594 001a FF92      		push r15
 5595 001c 0F93      		push r16
 5596 001e 1F93      		push r17
 5597 0020 DF93      		push r29
 5598 0022 CF93      		push r28
 5599 0024 CDB7      		in r28,__SP_L__
 5600 0026 DEB7      		in r29,__SP_H__
 5601 0028 6397      		sbiw r28,19
 5602 002a 0FB6      		in __tmp_reg__,__SREG__
 5603 002c F894      		cli
 5604 002e DEBF      		out __SP_H__,r29
 5605 0030 0FBE      		out __SREG__,__tmp_reg__
 5606 0032 CDBF      		out __SP_L__,r28
 5607               	/* prologue: function */
 5608               	/* frame size = 19 */
 5609               	/* stack size = 37 */
 5610               	.L__stack_usage = 37
 5611 0034 1C01      		movw r2,r24
 5612 0036 7E87      		std Y+14,r23
 5613 0038 6D87      		std Y+13,r22
 5614 003a 5A87      		std Y+10,r21
 5615 003c 4987      		std Y+9,r20
 5616               	.LSM351:
 5617 003e 0097      		sbiw r24,0
 5618 0040 01F4      		brne .+2
 5619 0042 00C0      		rjmp .L530
 5620               	.LVL237:
 5621               	.LSM352:
 5622 0044 6115      		cp r22,__zero_reg__
 5623 0046 7105      		cpc r23,__zero_reg__
 5624 0048 01F4      		brne .+2
 5625 004a 00C0      		rjmp .L530
 5626 004c 4115      		cp r20,__zero_reg__
 5627 004e 5105      		cpc r21,__zero_reg__
 5628 0050 01F4      		brne .+2
 5629 0052 00C0      		rjmp .L530
 5630               	.LSM353:
 5631 0054 DC01      		movw r26,r24
 5632 0056 D396      		adiw r26,51
 5633 0058 BC91      		ld r27,X
 5634 005a B983      		std Y+1,r27
 5635 005c FC01      		movw r30,r24
 5636 005e F4A9      		ldd r31,Z+52
 5637 0060 FA83      		std Y+2,r31
 5638 0062 DC01      		movw r26,r24
 5639 0064 D596      		adiw r26,53
 5640 0066 BC91      		ld r27,X
 5641 0068 BB83      		std Y+3,r27
 5642 006a FC01      		movw r30,r24
 5643 006c F6A9      		ldd r31,Z+54
 5644 006e FC83      		std Y+4,r31
 5645 0070 DC01      		movw r26,r24
 5646 0072 D796      		adiw r26,55
 5647 0074 BC91      		ld r27,X
 5648 0076 BD83      		std Y+5,r27
 5649 0078 FC01      		movw r30,r24
 5650 007a F0AD      		ldd r31,Z+56
 5651 007c FE83      		std Y+6,r31
 5652 007e DC01      		movw r26,r24
 5653 0080 D996      		adiw r26,57
 5654 0082 BC91      		ld r27,X
 5655 0084 BF83      		std Y+7,r27
 5656 0086 FC01      		movw r30,r24
 5657 0088 F2AD      		ldd r31,Z+58
 5658 008a F887      		std Y+8,r31
 5659 008c DC01      		movw r26,r24
 5660 008e 9796      		adiw r26,39
 5661 0090 4D90      		ld r4,X+
 5662 0092 5D90      		ld r5,X+
 5663 0094 6D90      		ld r6,X+
 5664 0096 7C90      		ld r7,X
 5665 0098 9A97      		sbiw r26,39+3
 5666 009a 9A01      		movw r18,r20
 5667 009c 40E0      		ldi r20,lo8(0)
 5668 009e 50E0      		ldi r21,hi8(0)
 5669               	.LVL238:
 5670 00a0 60E0      		ldi r22,lo8(0)
 5671 00a2 70E0      		ldi r23,hi8(0)
 5672 00a4 CB01      		movw r24,r22
 5673               	.LVL239:
 5674 00a6 E980      		ldd r14,Y+1
 5675 00a8 E20E      		add r14,r18
 5676 00aa F1E0      		ldi r31,lo8(1)
 5677 00ac E216      		cp r14,r18
 5678 00ae 00F0      		brlo .L475
 5679 00b0 F0E0      		ldi r31,lo8(0)
 5680               	.L475:
 5681 00b2 EA81      		ldd r30,Y+2
 5682 00b4 E30F      		add r30,r19
 5683 00b6 11E0      		ldi r17,lo8(1)
 5684 00b8 E317      		cp r30,r19
 5685 00ba 00F0      		brlo .L476
 5686 00bc 10E0      		ldi r17,lo8(0)
 5687               	.L476:
 5688 00be CF2E      		mov r12,r31
 5689 00c0 CE0E      		add r12,r30
 5690 00c2 B1E0      		ldi r27,lo8(1)
 5691 00c4 CE16      		cp r12,r30
 5692 00c6 00F0      		brlo .L477
 5693 00c8 B0E0      		ldi r27,lo8(0)
 5694               	.L477:
 5695 00ca 1B2B      		or r17,r27
 5696 00cc EB81      		ldd r30,Y+3
 5697 00ce E40F      		add r30,r20
 5698 00d0 B1E0      		ldi r27,lo8(1)
 5699 00d2 E417      		cp r30,r20
 5700 00d4 00F0      		brlo .L478
 5701 00d6 B0E0      		ldi r27,lo8(0)
 5702               	.L478:
 5703 00d8 A12F      		mov r26,r17
 5704 00da AE0F      		add r26,r30
 5705 00dc 11E0      		ldi r17,lo8(1)
 5706 00de AE17      		cp r26,r30
 5707 00e0 00F0      		brlo .L479
 5708 00e2 10E0      		ldi r17,lo8(0)
 5709               	.L479:
 5710 00e4 B12B      		or r27,r17
 5711 00e6 FC80      		ldd r15,Y+4
 5712 00e8 F50E      		add r15,r21
 5713 00ea 11E0      		ldi r17,lo8(1)
 5714 00ec F516      		cp r15,r21
 5715 00ee 00F0      		brlo .L480
 5716 00f0 10E0      		ldi r17,lo8(0)
 5717               	.L480:
 5718 00f2 BF0D      		add r27,r15
 5719 00f4 01E0      		ldi r16,lo8(1)
 5720 00f6 BF15      		cp r27,r15
 5721 00f8 00F0      		brlo .L481
 5722 00fa 00E0      		ldi r16,lo8(0)
 5723               	.L481:
 5724 00fc 102B      		or r17,r16
 5725 00fe DD80      		ldd r13,Y+5
 5726 0100 D60E      		add r13,r22
 5727 0102 01E0      		ldi r16,lo8(1)
 5728 0104 D616      		cp r13,r22
 5729 0106 00F0      		brlo .L482
 5730 0108 00E0      		ldi r16,lo8(0)
 5731               	.L482:
 5732 010a 1D0D      		add r17,r13
 5733 010c FF24      		clr r15
 5734 010e F394      		inc r15
 5735 0110 1D15      		cp r17,r13
 5736 0112 00F0      		brlo .L483
 5737 0114 FF24      		clr r15
 5738               	.L483:
 5739 0116 0F29      		or r16,r15
 5740 0118 FE80      		ldd r15,Y+6
 5741 011a F70E      		add r15,r23
 5742 011c DD24      		clr r13
 5743 011e D394      		inc r13
 5744 0120 F716      		cp r15,r23
 5745 0122 00F0      		brlo .L484
 5746 0124 DD24      		clr r13
 5747               	.L484:
 5748 0126 0F0D      		add r16,r15
 5749 0128 AA24      		clr r10
 5750 012a A394      		inc r10
 5751 012c 0F15      		cp r16,r15
 5752 012e 00F0      		brlo .L485
 5753 0130 AA24      		clr r10
 5754               	.L485:
 5755 0132 DA28      		or r13,r10
 5756 0134 AF80      		ldd r10,Y+7
 5757 0136 A80E      		add r10,r24
 5758 0138 8824      		clr r8
 5759 013a 8394      		inc r8
 5760 013c A816      		cp r10,r24
 5761 013e 00F0      		brlo .L486
 5762 0140 8824      		clr r8
 5763               	.L486:
 5764 0142 FD2C      		mov r15,r13
 5765 0144 FA0C      		add r15,r10
 5766 0146 E1E0      		ldi r30,lo8(1)
 5767 0148 FA14      		cp r15,r10
 5768 014a 00F0      		brlo .L487
 5769 014c E0E0      		ldi r30,lo8(0)
 5770               	.L487:
 5771 014e 8E2A      		or r8,r30
 5772 0150 8885      		ldd r24,Y+8
 5773 0152 890F      		add r24,r25
 5774 0154 880E      		add r8,r24
 5775 0156 A301      		movw r20,r6
 5776 0158 9201      		movw r18,r4
 5777               	.LVL240:
 5778 015a 60E0      		ldi r22,lo8(0)
 5779 015c 70E0      		ldi r23,hi8(0)
 5780 015e CB01      		movw r24,r22
 5781 0160 9815      		cp r25,r8
 5782 0162 00F0      		brlo .L532
 5783 0164 8916      		cp r8,r25
 5784 0166 01F4      		brne .L474
 5785 0168 8F15      		cp r24,r15
 5786 016a 00F0      		brlo .L532
 5787 016c F816      		cp r15,r24
 5788 016e 01F4      		brne .L474
 5789 0170 7017      		cp r23,r16
 5790 0172 00F0      		brlo .L532
 5791 0174 0717      		cp r16,r23
 5792 0176 01F4      		brne .L474
 5793 0178 6117      		cp r22,r17
 5794 017a 00F0      		brlo .L532
 5795 017c 1617      		cp r17,r22
 5796 017e 01F4      		brne .L474
 5797 0180 5B17      		cp r21,r27
 5798 0182 00F0      		brlo .L532
 5799 0184 B517      		cp r27,r21
 5800 0186 01F4      		brne .L474
 5801 0188 4A17      		cp r20,r26
 5802 018a 00F0      		brlo .L532
 5803 018c A417      		cp r26,r20
 5804 018e 01F4      		brne .L474
 5805 0190 3C15      		cp r19,r12
 5806 0192 00F0      		brlo .L532
 5807 0194 C316      		cp r12,r19
 5808 0196 01F4      		brne .L474
 5809 0198 4E14      		cp r4,r14
 5810 019a 00F4      		brsh .L474
 5811               	.L532:
 5812               	.LSM354:
 5813 019c F201      		movw r30,r4
 5814 019e E980      		ldd r14,Y+1
 5815 01a0 FA80      		ldd r15,Y+2
 5816 01a2 EE19      		sub r30,r14
 5817 01a4 FF09      		sbc r31,r15
 5818 01a6 FA87      		std Y+10,r31
 5819 01a8 E987      		std Y+9,r30
 5820               	.LVL241:
 5821               	.LSM355:
 5822 01aa 3097      		sbiw r30,0
 5823 01ac 01F4      		brne .+2
 5824 01ae 00C0      		rjmp .L528
 5825               	.LVL242:
 5826               	.L474:
 5827               	.LSM356:
 5828 01b0 D101      		movw r26,r2
 5829 01b2 ED91      		ld r30,X+
 5830 01b4 FC91      		ld r31,X
 5831 01b6 1197      		sbiw r26,1
 5832 01b8 E08C      		ldd r14,Z+24
 5833 01ba F18C      		ldd r15,Z+25
 5834 01bc FC86      		std Y+12,r15
 5835 01be EB86      		std Y+11,r14
 5836               	.LVL243:
 5837               	.LSM357:
 5838 01c0 DB96      		adiw r26,59
 5839 01c2 AD90      		ld r10,X+
 5840 01c4 BD90      		ld r11,X+
 5841 01c6 CD90      		ld r12,X+
 5842 01c8 DC90      		ld r13,X
 5843 01ca DE97      		sbiw r26,59+3
 5844               	.LVL244:
 5845               	.LSM358:
 5846 01cc A114      		cp r10,__zero_reg__
 5847 01ce B104      		cpc r11,__zero_reg__
 5848 01d0 C104      		cpc r12,__zero_reg__
 5849 01d2 D104      		cpc r13,__zero_reg__
 5850 01d4 01F0      		breq .+2
 5851 01d6 00C0      		rjmp .L489
 5852               	.LSM359:
 5853 01d8 9396      		adiw r26,35
 5854 01da AD90      		ld r10,X+
 5855 01dc BD90      		ld r11,X+
 5856 01de CD90      		ld r12,X+
 5857 01e0 DC90      		ld r13,X
 5858 01e2 9697      		sbiw r26,35+3
 5859               	.LVL245:
 5860               	.LSM360:
 5861 01e4 A114      		cp r10,__zero_reg__
 5862 01e6 B104      		cpc r11,__zero_reg__
 5863 01e8 C104      		cpc r12,__zero_reg__
 5864 01ea D104      		cpc r13,__zero_reg__
 5865 01ec 01F4      		brne .L490
 5866               	.LSM361:
 5867 01ee 8981      		ldd r24,Y+1
 5868 01f0 FA80      		ldd r15,Y+2
 5869 01f2 8F29      		or r24,r15
 5870 01f4 0B81      		ldd r16,Y+3
 5871 01f6 802B      		or r24,r16
 5872 01f8 1C81      		ldd r17,Y+4
 5873 01fa 812B      		or r24,r17
 5874 01fc 2D81      		ldd r18,Y+5
 5875 01fe 822B      		or r24,r18
 5876 0200 3E81      		ldd r19,Y+6
 5877 0202 832B      		or r24,r19
 5878 0204 4F81      		ldd r20,Y+7
 5879 0206 842B      		or r24,r20
 5880 0208 5885      		ldd r21,Y+8
 5881 020a 852B      		or r24,r21
 5882 020c 01F4      		brne .+2
 5883 020e 00C0      		rjmp .L528
 5884 0210 00C0      		rjmp .L530
 5885               	.L490:
 5886               	.LSM362:
 5887 0212 8981      		ldd r24,Y+1
 5888 0214 6A81      		ldd r22,Y+2
 5889 0216 862B      		or r24,r22
 5890 0218 7B81      		ldd r23,Y+3
 5891 021a 872B      		or r24,r23
 5892 021c 9C81      		ldd r25,Y+4
 5893 021e 892B      		or r24,r25
 5894 0220 AD81      		ldd r26,Y+5
 5895 0222 8A2B      		or r24,r26
 5896 0224 BE81      		ldd r27,Y+6
 5897 0226 8B2B      		or r24,r27
 5898 0228 EF81      		ldd r30,Y+7
 5899 022a 8E2B      		or r24,r30
 5900 022c F885      		ldd r31,Y+8
 5901 022e 8F2B      		or r24,r31
 5902 0230 01F0      		breq .L489
 5903               	.LBB50:
 5904               	.LSM363:
 5905 0232 E980      		ldd r14,Y+1
 5906 0234 FA80      		ldd r15,Y+2
 5907 0236 0B81      		ldd r16,Y+3
 5908 0238 1C81      		ldd r17,Y+4
 5909               	.LVL246:
 5910               	.LSM364:
 5911 023a 2B85      		ldd r18,Y+11
 5912 023c 3C85      		ldd r19,Y+12
 5913 023e 3901      		movw r6,r18
 5914 0240 8824      		clr r8
 5915 0242 9924      		clr r9
 5916 0244 B601      		movw r22,r12
 5917 0246 A501      		movw r20,r10
 5918 0248 00C0      		rjmp .L492
 5919               	.LVL247:
 5920               	.L493:
 5921               	.LSM365:
 5922 024a D101      		movw r26,r2
 5923 024c 8D91      		ld r24,X+
 5924 024e 9C91      		ld r25,X
 5925 0250 0E94 0000 		call fat_get_next_cluster
 5926               	.LVL248:
 5927 0254 AB01      		movw r20,r22
 5928 0256 BC01      		movw r22,r24
 5929               	.LVL249:
 5930               	.LSM366:
 5931 0258 4115      		cp r20,__zero_reg__
 5932 025a 5105      		cpc r21,__zero_reg__
 5933 025c 6105      		cpc r22,__zero_reg__
 5934 025e 7105      		cpc r23,__zero_reg__
 5935 0260 01F4      		brne .+2
 5936 0262 00C0      		rjmp .L530
 5937 0264 E618      		sub r14,r6
 5938 0266 F708      		sbc r15,r7
 5939 0268 0809      		sbc r16,r8
 5940 026a 1909      		sbc r17,r9
 5941               	.LVL250:
 5942               	.L492:
 5943               	.LSM367:
 5944 026c E614      		cp r14,r6
 5945 026e F704      		cpc r15,r7
 5946 0270 0805      		cpc r16,r8
 5947 0272 1905      		cpc r17,r9
 5948 0274 00F4      		brsh .L493
 5949 0276 5A01      		movw r10,r20
 5950 0278 6B01      		movw r12,r22
 5951               	.LVL251:
 5952               	.L489:
 5953               	.LBE50:
 5954               	.LSM368:
 5955 027a 4B84      		ldd r4,Y+11
 5956 027c 5C84      		ldd r5,Y+12
 5957 027e 0894      		sec
 5958 0280 4108      		sbc r4,__zero_reg__
 5959 0282 5108      		sbc r5,__zero_reg__
 5960 0284 E981      		ldd r30,Y+1
 5961 0286 FA81      		ldd r31,Y+2
 5962 0288 4E22      		and r4,r30
 5963 028a 5F22      		and r5,r31
 5964 028c 6984      		ldd r6,Y+9
 5965 028e 7A84      		ldd r7,Y+10
 5966 0290 3B8A      		std Y+19,r3
 5967 0292 2A8A      		std Y+18,r2
 5968               	.LVL252:
 5969               	.L524:
 5970               	.LBB51:
 5971               	.LSM369:
 5972 0294 AA89      		ldd r26,Y+18
 5973 0296 BB89      		ldd r27,Y+19
 5974 0298 0D91      		ld r16,X+
 5975 029a 1C91      		ld r17,X
 5976 029c C801      		movw r24,r16
 5977 029e B601      		movw r22,r12
 5978 02a0 A501      		movw r20,r10
 5979 02a2 0E94 0000 		call fat_cluster_offset
 5980 02a6 A22F      		mov r26,r18
 5981 02a8 3F87      		std Y+15,r19
 5982 02aa 488B      		std Y+16,r20
 5983 02ac 598B      		std Y+17,r21
 5984               	.LVL253:
 5985               	.LSM370:
 5986 02ae 8B84      		ldd r8,Y+11
 5987 02b0 9C84      		ldd r9,Y+12
 5988 02b2 8418      		sub r8,r4
 5989 02b4 9508      		sbc r9,r5
 5990 02b6 6814      		cp r6,r8
 5991 02b8 7904      		cpc r7,r9
 5992 02ba 00F4      		brsh .L494
 5993 02bc 4301      		movw r8,r6
 5994               	.L494:
 5995               	.LVL254:
 5996               	.LSM371:
 5997 02be F801      		movw r30,r16
 5998 02c0 2080      		ld r2,Z
 5999 02c2 3180      		ldd r3,Z+1
 6000               	.LSM372:
 6001 02c4 7201      		movw r14,r4
 6002 02c6 00E0      		ldi r16,lo8(0)
 6003 02c8 10E0      		ldi r17,hi8(0)
 6004 02ca 20E0      		ldi r18,lo8(0)
 6005 02cc 30E0      		ldi r19,hi8(0)
 6006 02ce A901      		movw r20,r18
 6007               	.LVL255:
 6008 02d0 4982      		std Y+1,r4
 6009 02d2 FA82      		std Y+2,r15
 6010 02d4 0B83      		std Y+3,r16
 6011 02d6 1C83      		std Y+4,r17
 6012 02d8 2D83      		std Y+5,r18
 6013 02da 3E83      		std Y+6,r19
 6014 02dc 4F83      		std Y+7,r20
 6015 02de 5887      		std Y+8,r21
 6016 02e0 242D      		mov r18,r4
 6017 02e2 2A0F      		add r18,r26
 6018 02e4 41E0      		ldi r20,lo8(1)
 6019               	.LVL256:
 6020 02e6 2415      		cp r18,r4
 6021 02e8 00F0      		brlo .L495
 6022 02ea 40E0      		ldi r20,lo8(0)
 6023               	.L495:
 6024 02ec FA81      		ldd r31,Y+2
 6025 02ee FF84      		ldd r15,Y+15
 6026 02f0 FF0D      		add r31,r15
 6027 02f2 E1E0      		ldi r30,lo8(1)
 6028 02f4 0A81      		ldd r16,Y+2
 6029 02f6 F017      		cp r31,r16
 6030 02f8 00F0      		brlo .L496
 6031 02fa E0E0      		ldi r30,lo8(0)
 6032               	.L496:
 6033 02fc 342F      		mov r19,r20
 6034               	.LVL257:
 6035 02fe 3F0F      		add r19,r31
 6036 0300 A1E0      		ldi r26,lo8(1)
 6037               	.LVL258:
 6038 0302 3F17      		cp r19,r31
 6039 0304 00F0      		brlo .L497
 6040 0306 A0E0      		ldi r26,lo8(0)
 6041               	.L497:
 6042 0308 EA2B      		or r30,r26
 6043 030a 5B81      		ldd r21,Y+3
 6044 030c 1889      		ldd r17,Y+16
 6045 030e 510F      		add r21,r17
 6046 0310 F1E0      		ldi r31,lo8(1)
 6047 0312 4B81      		ldd r20,Y+3
 6048 0314 5417      		cp r21,r20
 6049 0316 00F0      		brlo .L498
 6050 0318 F0E0      		ldi r31,lo8(0)
 6051               	.L498:
 6052 031a 4E2F      		mov r20,r30
 6053 031c 450F      		add r20,r21
 6054 031e E1E0      		ldi r30,lo8(1)
 6055 0320 4517      		cp r20,r21
 6056 0322 00F0      		brlo .L499
 6057 0324 E0E0      		ldi r30,lo8(0)
 6058               	.L499:
 6059 0326 FE2B      		or r31,r30
 6060 0328 1C81      		ldd r17,Y+4
 6061 032a 5989      		ldd r21,Y+17
 6062 032c 150F      		add r17,r21
 6063 032e E1E0      		ldi r30,lo8(1)
 6064 0330 AC81      		ldd r26,Y+4
 6065 0332 1A17      		cp r17,r26
 6066 0334 00F0      		brlo .L500
 6067 0336 E0E0      		ldi r30,lo8(0)
 6068               	.L500:
 6069 0338 5F2F      		mov r21,r31
 6070 033a 510F      		add r21,r17
 6071 033c F1E0      		ldi r31,lo8(1)
 6072 033e 5117      		cp r21,r17
 6073 0340 00F0      		brlo .L501
 6074 0342 F0E0      		ldi r31,lo8(0)
 6075               	.L501:
 6076 0344 EF2B      		or r30,r31
 6077 0346 1D81      		ldd r17,Y+5
 6078 0348 160F      		add r17,r22
 6079 034a F1E0      		ldi r31,lo8(1)
 6080 034c BD81      		ldd r27,Y+5
 6081 034e 1B17      		cp r17,r27
 6082 0350 00F0      		brlo .L502
 6083 0352 F0E0      		ldi r31,lo8(0)
 6084               	.L502:
 6085 0354 6E2F      		mov r22,r30
 6086 0356 610F      		add r22,r17
 6087 0358 E1E0      		ldi r30,lo8(1)
 6088 035a 6117      		cp r22,r17
 6089 035c 00F0      		brlo .L503
 6090 035e E0E0      		ldi r30,lo8(0)
 6091               	.L503:
 6092 0360 FE2B      		or r31,r30
 6093 0362 1E81      		ldd r17,Y+6
 6094 0364 170F      		add r17,r23
 6095 0366 E1E0      		ldi r30,lo8(1)
 6096 0368 EE80      		ldd r14,Y+6
 6097 036a 1E15      		cp r17,r14
 6098 036c 00F0      		brlo .L504
 6099 036e E0E0      		ldi r30,lo8(0)
 6100               	.L504:
 6101 0370 7F2F      		mov r23,r31
 6102 0372 710F      		add r23,r17
 6103 0374 F1E0      		ldi r31,lo8(1)
 6104 0376 7117      		cp r23,r17
 6105 0378 00F0      		brlo .L505
 6106 037a F0E0      		ldi r31,lo8(0)
 6107               	.L505:
 6108 037c EF2B      		or r30,r31
 6109 037e FF81      		ldd r31,Y+7
 6110 0380 F80F      		add r31,r24
 6111 0382 11E0      		ldi r17,lo8(1)
 6112 0384 FF80      		ldd r15,Y+7
 6113 0386 FF15      		cp r31,r15
 6114 0388 00F0      		brlo .L506
 6115 038a 10E0      		ldi r17,lo8(0)
 6116               	.L506:
 6117 038c 8E2F      		mov r24,r30
 6118 038e 8F0F      		add r24,r31
 6119 0390 E1E0      		ldi r30,lo8(1)
 6120 0392 8F17      		cp r24,r31
 6121 0394 00F0      		brlo .L507
 6122 0396 E0E0      		ldi r30,lo8(0)
 6123               	.L507:
 6124 0398 1E2B      		or r17,r30
 6125 039a 0885      		ldd r16,Y+8
 6126 039c 900F      		add r25,r16
 6127               	.LSM373:
 6128 039e D101      		movw r26,r2
 6129 03a0 ED91      		ld r30,X+
 6130 03a2 FC91      		ld r31,X
 6131 03a4 910F      		add r25,r17
 6132 03a6 0D85      		ldd r16,Y+13
 6133 03a8 1E85      		ldd r17,Y+14
 6134 03aa 7401      		movw r14,r8
 6135 03ac 0995      		icall
 6136 03ae 8823      		tst r24
 6137 03b0 01F4      		brne .+2
 6138 03b2 00C0      		rjmp .L533
 6139               	.L508:
 6140               	.LVL259:
 6141               	.LSM374:
 6142 03b4 6818      		sub r6,r8
 6143 03b6 7908      		sbc r7,r9
 6144               	.LVL260:
 6145               	.LSM375:
 6146 03b8 9401      		movw r18,r8
 6147 03ba 40E0      		ldi r20,lo8(0)
 6148 03bc 50E0      		ldi r21,hi8(0)
 6149 03be 60E0      		ldi r22,lo8(0)
 6150 03c0 70E0      		ldi r23,hi8(0)
 6151 03c2 CB01      		movw r24,r22
 6152 03c4 AA89      		ldd r26,Y+18
 6153 03c6 BB89      		ldd r27,Y+19
 6154 03c8 D396      		adiw r26,51
 6155 03ca EC91      		ld r30,X
 6156 03cc D397      		sbiw r26,51
 6157 03ce D496      		adiw r26,52
 6158 03d0 2C90      		ld r2,X
 6159 03d2 D497      		sbiw r26,52
 6160 03d4 D596      		adiw r26,53
 6161 03d6 EC90      		ld r14,X
 6162 03d8 D597      		sbiw r26,53
 6163 03da D696      		adiw r26,54
 6164 03dc FC90      		ld r15,X
 6165 03de D697      		sbiw r26,54
 6166 03e0 D796      		adiw r26,55
 6167 03e2 FC91      		ld r31,X
 6168 03e4 D797      		sbiw r26,55
 6169 03e6 D896      		adiw r26,56
 6170 03e8 3C90      		ld r3,X
 6171 03ea D897      		sbiw r26,56
 6172 03ec D996      		adiw r26,57
 6173 03ee BC91      		ld r27,X
 6174 03f0 B983      		std Y+1,r27
 6175 03f2 AA89      		ldd r26,Y+18
 6176 03f4 BB89      		ldd r27,Y+19
 6177 03f6 DA96      		adiw r26,58
 6178 03f8 BC91      		ld r27,X
 6179 03fa BF87      		std Y+15,r27
 6180 03fc E80D      		add r30,r8
 6181 03fe 01E0      		ldi r16,lo8(1)
 6182 0400 E815      		cp r30,r8
 6183 0402 00F0      		brlo .L509
 6184 0404 00E0      		ldi r16,lo8(0)
 6185               	.L509:
 6186 0406 B22D      		mov r27,r2
 6187 0408 B30F      		add r27,r19
 6188 040a 11E0      		ldi r17,lo8(1)
 6189 040c B317      		cp r27,r19
 6190 040e 00F0      		brlo .L510
 6191 0410 10E0      		ldi r17,lo8(0)
 6192               	.L510:
 6193 0412 0B0F      		add r16,r27
 6194 0414 A1E0      		ldi r26,lo8(1)
 6195 0416 0B17      		cp r16,r27
 6196 0418 00F0      		brlo .L511
 6197 041a A0E0      		ldi r26,lo8(0)
 6198               	.L511:
 6199 041c 1A2B      		or r17,r26
 6200 041e A42F      		mov r26,r20
 6201 0420 AE0D      		add r26,r14
 6202 0422 B1E0      		ldi r27,lo8(1)
 6203 0424 A417      		cp r26,r20
 6204 0426 00F0      		brlo .L512
 6205 0428 B0E0      		ldi r27,lo8(0)
 6206               	.L512:
 6207 042a 1A0F      		add r17,r26
 6208 042c EE24      		clr r14
 6209 042e E394      		inc r14
 6210 0430 1A17      		cp r17,r26
 6211 0432 00F0      		brlo .L513
 6212 0434 EE24      		clr r14
 6213               	.L513:
 6214 0436 BE29      		or r27,r14
 6215 0438 F50E      		add r15,r21
 6216 043a A1E0      		ldi r26,lo8(1)
 6217 043c F516      		cp r15,r21
 6218 043e 00F0      		brlo .L514
 6219 0440 A0E0      		ldi r26,lo8(0)
 6220               	.L514:
 6221 0442 BF0D      		add r27,r15
 6222 0444 B88B      		std Y+16,r27
 6223 0446 EE24      		clr r14
 6224 0448 E394      		inc r14
 6225 044a BF15      		cp r27,r15
 6226 044c 00F0      		brlo .L515
 6227 044e EE24      		clr r14
 6228               	.L515:
 6229 0450 AE29      		or r26,r14
 6230 0452 F60F      		add r31,r22
 6231 0454 2224      		clr r2
 6232 0456 2394      		inc r2
 6233 0458 F617      		cp r31,r22
 6234 045a 00F0      		brlo .L516
 6235 045c 2224      		clr r2
 6236               	.L516:
 6237 045e AF0F      		add r26,r31
 6238 0460 A98B      		std Y+17,r26
 6239 0462 FF24      		clr r15
 6240 0464 F394      		inc r15
 6241 0466 AF17      		cp r26,r31
 6242 0468 00F0      		brlo .L517
 6243 046a FF24      		clr r15
 6244               	.L517:
 6245 046c 2F28      		or r2,r15
 6246 046e F72F      		mov r31,r23
 6247 0470 F30D      		add r31,r3
 6248 0472 3324      		clr r3
 6249 0474 3394      		inc r3
 6250 0476 F717      		cp r31,r23
 6251 0478 00F0      		brlo .L518
 6252 047a 3324      		clr r3
 6253               	.L518:
 6254 047c 2F0E      		add r2,r31
 6255 047e FF24      		clr r15
 6256 0480 F394      		inc r15
 6257 0482 2F16      		cp r2,r31
 6258 0484 00F0      		brlo .L519
 6259 0486 FF24      		clr r15
 6260               	.L519:
 6261 0488 3F28      		or r3,r15
 6262 048a F981      		ldd r31,Y+1
 6263 048c F80F      		add r31,r24
 6264 048e EE24      		clr r14
 6265 0490 E394      		inc r14
 6266 0492 F817      		cp r31,r24
 6267 0494 00F0      		brlo .L520
 6268 0496 EE24      		clr r14
 6269               	.L520:
 6270 0498 3F0E      		add r3,r31
 6271 049a FF24      		clr r15
 6272 049c F394      		inc r15
 6273 049e 3F16      		cp r3,r31
 6274 04a0 00F0      		brlo .L521
 6275 04a2 FF24      		clr r15
 6276               	.L521:
 6277 04a4 FE28      		or r15,r14
 6278 04a6 8F85      		ldd r24,Y+15
 6279 04a8 890F      		add r24,r25
 6280 04aa F80E      		add r15,r24
 6281 04ac AA89      		ldd r26,Y+18
 6282 04ae BB89      		ldd r27,Y+19
 6283 04b0 D396      		adiw r26,51
 6284 04b2 EC93      		st X,r30
 6285 04b4 D397      		sbiw r26,51
 6286 04b6 D496      		adiw r26,52
 6287 04b8 0C93      		st X,r16
 6288 04ba D497      		sbiw r26,52
 6289 04bc D596      		adiw r26,53
 6290 04be 1C93      		st X,r17
 6291 04c0 D597      		sbiw r26,53
 6292 04c2 E889      		ldd r30,Y+16
 6293 04c4 D696      		adiw r26,54
 6294 04c6 EC93      		st X,r30
 6295 04c8 D697      		sbiw r26,54
 6296 04ca F989      		ldd r31,Y+17
 6297 04cc D796      		adiw r26,55
 6298 04ce FC93      		st X,r31
 6299 04d0 D797      		sbiw r26,55
 6300 04d2 D896      		adiw r26,56
 6301 04d4 2C92      		st X,r2
 6302 04d6 D897      		sbiw r26,56
 6303 04d8 D996      		adiw r26,57
 6304 04da 3C92      		st X,r3
 6305 04dc D997      		sbiw r26,57
 6306 04de DA96      		adiw r26,58
 6307 04e0 FC92      		st X,r15
 6308 04e2 DA97      		sbiw r26,58
 6309               	.LSM376:
 6310 04e4 C401      		movw r24,r8
 6311 04e6 840D      		add r24,r4
 6312 04e8 951D      		adc r25,r5
 6313 04ea EB84      		ldd r14,Y+11
 6314 04ec FC84      		ldd r15,Y+12
 6315 04ee 8E15      		cp r24,r14
 6316 04f0 9F05      		cpc r25,r15
 6317 04f2 00F0      		brlo .L522
 6318               	.LSM377:
 6319 04f4 8D91      		ld r24,X+
 6320 04f6 9C91      		ld r25,X
 6321 04f8 B601      		movw r22,r12
 6322 04fa A501      		movw r20,r10
 6323 04fc 0E94 0000 		call fat_get_next_cluster
 6324 0500 5B01      		movw r10,r22
 6325 0502 6C01      		movw r12,r24
 6326               	.LVL261:
 6327 0504 6115      		cp r22,__zero_reg__
 6328 0506 7105      		cpc r23,__zero_reg__
 6329 0508 8105      		cpc r24,__zero_reg__
 6330 050a 9105      		cpc r25,__zero_reg__
 6331 050c 01F4      		brne .L531
 6332 050e 2A88      		ldd r2,Y+18
 6333 0510 3B88      		ldd r3,Y+19
 6334               	.LSM378:
 6335 0512 D101      		movw r26,r2
 6336 0514 DB96      		adiw r26,59
 6337 0516 1D92      		st X+,__zero_reg__
 6338 0518 1D92      		st X+,__zero_reg__
 6339 051a 1D92      		st X+,__zero_reg__
 6340 051c 1C92      		st X,__zero_reg__
 6341 051e DE97      		sbiw r26,59+3
 6342               	.LVL262:
 6343               	.L533:
 6344               	.LSM379:
 6345 0520 2985      		ldd r18,Y+9
 6346 0522 3A85      		ldd r19,Y+10
 6347 0524 2619      		sub r18,r6
 6348 0526 3709      		sbc r19,r7
 6349 0528 00C0      		rjmp .L473
 6350               	.LVL263:
 6351               	.L531:
 6352               	.LSM380:
 6353 052a 4424      		clr r4
 6354 052c 5524      		clr r5
 6355               	.LVL264:
 6356               	.L522:
 6357               	.LSM381:
 6358 052e EA89      		ldd r30,Y+18
 6359 0530 FB89      		ldd r31,Y+19
 6360 0532 A3AE      		std Z+59,r10
 6361 0534 B4AE      		std Z+60,r11
 6362 0536 C5AE      		std Z+61,r12
 6363 0538 D6AE      		std Z+62,r13
 6364               	.LBE51:
 6365               	.LSM382:
 6366 053a 6114      		cp r6,__zero_reg__
 6367 053c 7104      		cpc r7,__zero_reg__
 6368 053e 01F0      		breq .L523
 6369               	.LBB52:
 6370               	.LSM383:
 6371 0540 ED84      		ldd r14,Y+13
 6372 0542 FE84      		ldd r15,Y+14
 6373 0544 E80C      		add r14,r8
 6374 0546 F91C      		adc r15,r9
 6375 0548 FE86      		std Y+14,r15
 6376 054a ED86      		std Y+13,r14
 6377 054c 00C0      		rjmp .L524
 6378               	.L523:
 6379               	.LBE52:
 6380               	.LSM384:
 6381 054e 2985      		ldd r18,Y+9
 6382 0550 3A85      		ldd r19,Y+10
 6383 0552 00C0      		rjmp .L473
 6384               	.LVL265:
 6385               	.L528:
 6386               	.LSM385:
 6387 0554 20E0      		ldi r18,lo8(0)
 6388 0556 30E0      		ldi r19,hi8(0)
 6389 0558 00C0      		rjmp .L473
 6390               	.L530:
 6391               	.LBB53:
 6392               	.LSM386:
 6393 055a 2FEF      		ldi r18,lo8(-1)
 6394 055c 3FEF      		ldi r19,hi8(-1)
 6395               	.LVL266:
 6396               	.L473:
 6397               	.LBE53:
 6398               	.LSM387:
 6399 055e C901      		movw r24,r18
 6400               	/* epilogue start */
 6401 0560 6396      		adiw r28,19
 6402 0562 0FB6      		in __tmp_reg__,__SREG__
 6403 0564 F894      		cli
 6404 0566 DEBF      		out __SP_H__,r29
 6405 0568 0FBE      		out __SREG__,__tmp_reg__
 6406 056a CDBF      		out __SP_L__,r28
 6407 056c CF91      		pop r28
 6408 056e DF91      		pop r29
 6409 0570 1F91      		pop r17
 6410 0572 0F91      		pop r16
 6411 0574 FF90      		pop r15
 6412 0576 EF90      		pop r14
 6413 0578 DF90      		pop r13
 6414 057a CF90      		pop r12
 6415 057c BF90      		pop r11
 6416 057e AF90      		pop r10
 6417 0580 9F90      		pop r9
 6418 0582 8F90      		pop r8
 6419 0584 7F90      		pop r7
 6420 0586 6F90      		pop r6
 6421 0588 5F90      		pop r5
 6422 058a 4F90      		pop r4
 6423 058c 3F90      		pop r3
 6424 058e 2F90      		pop r2
 6425 0590 0895      		ret
 6426               	.LFE13:
 6428               		.section	.text.fat_write_file,"ax",@progbits
 6429               	.global	fat_write_file
 6431               	fat_write_file:
 6432               	.LFB14:
 6433               	.LSM388:
 6434               	.LVL267:
 6435 0000 2F92      		push r2
 6436 0002 3F92      		push r3
 6437 0004 4F92      		push r4
 6438 0006 5F92      		push r5
 6439 0008 6F92      		push r6
 6440 000a 7F92      		push r7
 6441 000c 8F92      		push r8
 6442 000e 9F92      		push r9
 6443 0010 AF92      		push r10
 6444 0012 BF92      		push r11
 6445 0014 CF92      		push r12
 6446 0016 DF92      		push r13
 6447 0018 EF92      		push r14
 6448 001a FF92      		push r15
 6449 001c 0F93      		push r16
 6450 001e 1F93      		push r17
 6451 0020 DF93      		push r29
 6452 0022 CF93      		push r28
 6453 0024 CDB7      		in r28,__SP_L__
 6454 0026 DEB7      		in r29,__SP_H__
 6455 0028 6497      		sbiw r28,20
 6456 002a 0FB6      		in __tmp_reg__,__SREG__
 6457 002c F894      		cli
 6458 002e DEBF      		out __SP_H__,r29
 6459 0030 0FBE      		out __SREG__,__tmp_reg__
 6460 0032 CDBF      		out __SP_L__,r28
 6461               	/* prologue: function */
 6462               	/* frame size = 20 */
 6463               	/* stack size = 38 */
 6464               	.L__stack_usage = 38
 6465 0034 998B      		std Y+17,r25
 6466 0036 888B      		std Y+16,r24
 6467 0038 7C87      		std Y+12,r23
 6468 003a 6B87      		std Y+11,r22
 6469 003c 5E87      		std Y+14,r21
 6470 003e 4D87      		std Y+13,r20
 6471               	.LSM389:
 6472 0040 0097      		sbiw r24,0
 6473 0042 01F4      		brne .+2
 6474 0044 00C0      		rjmp .L584
 6475               	.LSM390:
 6476 0046 6115      		cp r22,__zero_reg__
 6477 0048 7105      		cpc r23,__zero_reg__
 6478 004a 01F4      		brne .+2
 6479 004c 00C0      		rjmp .L584
 6480 004e 4115      		cp r20,__zero_reg__
 6481 0050 5105      		cpc r21,__zero_reg__
 6482 0052 01F4      		brne .+2
 6483 0054 00C0      		rjmp .L584
 6484               	.LSM391:
 6485 0056 DC01      		movw r26,r24
 6486 0058 D396      		adiw r26,51
 6487 005a BC91      		ld r27,X
 6488 005c B983      		std Y+1,r27
 6489 005e FC01      		movw r30,r24
 6490 0060 F4A9      		ldd r31,Z+52
 6491 0062 FA83      		std Y+2,r31
 6492 0064 DC01      		movw r26,r24
 6493 0066 D596      		adiw r26,53
 6494 0068 BC91      		ld r27,X
 6495 006a BB83      		std Y+3,r27
 6496 006c FC01      		movw r30,r24
 6497 006e F6A9      		ldd r31,Z+54
 6498 0070 FC83      		std Y+4,r31
 6499 0072 DC01      		movw r26,r24
 6500 0074 D796      		adiw r26,55
 6501 0076 BC91      		ld r27,X
 6502 0078 BD83      		std Y+5,r27
 6503 007a FC01      		movw r30,r24
 6504 007c F0AD      		ldd r31,Z+56
 6505 007e FE83      		std Y+6,r31
 6506 0080 DC01      		movw r26,r24
 6507 0082 D996      		adiw r26,57
 6508 0084 BC91      		ld r27,X
 6509 0086 BF83      		std Y+7,r27
 6510 0088 FC01      		movw r30,r24
 6511 008a F2AD      		ldd r31,Z+58
 6512 008c F887      		std Y+8,r31
 6513 008e DC01      		movw r26,r24
 6514 0090 9796      		adiw r26,39
 6515 0092 2D91      		ld r18,X+
 6516 0094 3D91      		ld r19,X+
 6517 0096 4D91      		ld r20,X+
 6518 0098 5C91      		ld r21,X
 6519 009a 9A97      		sbiw r26,39+3
 6520 009c 60E0      		ldi r22,lo8(0)
 6521 009e 70E0      		ldi r23,hi8(0)
 6522 00a0 CB01      		movw r24,r22
 6523               	.LVL268:
 6524 00a2 9F17      		cp r25,r31
 6525 00a4 00F4      		brsh .+2
 6526 00a6 00C0      		rjmp .L584
 6527 00a8 F917      		cp r31,r25
 6528 00aa 01F4      		brne .L587
 6529 00ac FF81      		ldd r31,Y+7
 6530 00ae 8F17      		cp r24,r31
 6531 00b0 00F4      		brsh .+2
 6532 00b2 00C0      		rjmp .L584
 6533 00b4 F817      		cp r31,r24
 6534 00b6 01F4      		brne .L587
 6535 00b8 FE80      		ldd r15,Y+6
 6536 00ba 7F15      		cp r23,r15
 6537 00bc 00F4      		brsh .+2
 6538 00be 00C0      		rjmp .L584
 6539 00c0 F716      		cp r15,r23
 6540 00c2 01F4      		brne .L587
 6541 00c4 1D81      		ldd r17,Y+5
 6542 00c6 6117      		cp r22,r17
 6543 00c8 00F4      		brsh .+2
 6544 00ca 00C0      		rjmp .L584
 6545 00cc 1617      		cp r17,r22
 6546 00ce 01F4      		brne .L587
 6547 00d0 BC81      		ldd r27,Y+4
 6548 00d2 5B17      		cp r21,r27
 6549 00d4 00F4      		brsh .+2
 6550 00d6 00C0      		rjmp .L584
 6551 00d8 B517      		cp r27,r21
 6552 00da 01F4      		brne .L587
 6553 00dc FB81      		ldd r31,Y+3
 6554 00de 4F17      		cp r20,r31
 6555 00e0 00F4      		brsh .+2
 6556 00e2 00C0      		rjmp .L584
 6557 00e4 F417      		cp r31,r20
 6558 00e6 01F4      		brne .L587
 6559 00e8 FA80      		ldd r15,Y+2
 6560 00ea 3F15      		cp r19,r15
 6561 00ec 00F4      		brsh .+2
 6562 00ee 00C0      		rjmp .L584
 6563 00f0 F316      		cp r15,r19
 6564 00f2 01F4      		brne .L587
 6565 00f4 1981      		ldd r17,Y+1
 6566 00f6 2117      		cp r18,r17
 6567 00f8 00F4      		brsh .+2
 6568 00fa 00C0      		rjmp .L584
 6569               	.L587:
 6570               	.LSM392:
 6571 00fc A889      		ldd r26,Y+16
 6572 00fe B989      		ldd r27,Y+17
 6573 0100 8D91      		ld r24,X+
 6574 0102 9C91      		ld r25,X
 6575 0104 1197      		sbiw r26,1
 6576               	.LVL269:
 6577 0106 FC01      		movw r30,r24
 6578               	.LVL270:
 6579 0108 008C      		ldd __tmp_reg__,Z+24
 6580 010a F18D      		ldd r31,Z+25
 6581 010c E02D      		mov r30,__tmp_reg__
 6582 010e FA87      		std Y+10,r31
 6583 0110 E987      		std Y+9,r30
 6584               	.LVL271:
 6585               	.LSM393:
 6586 0112 DB96      		adiw r26,59
 6587 0114 AD90      		ld r10,X+
 6588 0116 BD90      		ld r11,X+
 6589 0118 CD90      		ld r12,X+
 6590 011a DC90      		ld r13,X
 6591 011c DE97      		sbiw r26,59+3
 6592               	.LVL272:
 6593               	.LSM394:
 6594 011e A114      		cp r10,__zero_reg__
 6595 0120 B104      		cpc r11,__zero_reg__
 6596 0122 C104      		cpc r12,__zero_reg__
 6597 0124 D104      		cpc r13,__zero_reg__
 6598 0126 01F0      		breq .+2
 6599 0128 00C0      		rjmp .L537
 6600               	.LSM395:
 6601 012a 9396      		adiw r26,35
 6602 012c AD90      		ld r10,X+
 6603 012e BD90      		ld r11,X+
 6604 0130 CD90      		ld r12,X+
 6605 0132 DC90      		ld r13,X
 6606 0134 9697      		sbiw r26,35+3
 6607               	.LVL273:
 6608               	.LSM396:
 6609 0136 A114      		cp r10,__zero_reg__
 6610 0138 B104      		cpc r11,__zero_reg__
 6611 013a C104      		cpc r12,__zero_reg__
 6612 013c D104      		cpc r13,__zero_reg__
 6613 013e 01F4      		brne .L538
 6614               	.LSM397:
 6615 0140 2981      		ldd r18,Y+1
 6616 0142 FA81      		ldd r31,Y+2
 6617 0144 2F2B      		or r18,r31
 6618 0146 EB80      		ldd r14,Y+3
 6619 0148 2E29      		or r18,r14
 6620 014a FC80      		ldd r15,Y+4
 6621 014c 2F29      		or r18,r15
 6622 014e 0D81      		ldd r16,Y+5
 6623 0150 202B      		or r18,r16
 6624 0152 1E81      		ldd r17,Y+6
 6625 0154 212B      		or r18,r17
 6626 0156 3F81      		ldd r19,Y+7
 6627 0158 232B      		or r18,r19
 6628 015a 4885      		ldd r20,Y+8
 6629               	.LVL274:
 6630 015c 242B      		or r18,r20
 6631 015e 01F0      		breq .+2
 6632 0160 00C0      		rjmp .L584
 6633               	.LSM398:
 6634 0162 40E0      		ldi r20,lo8(0)
 6635 0164 50E0      		ldi r21,hi8(0)
 6636 0166 BA01      		movw r22,r20
 6637 0168 01E0      		ldi r16,lo8(1)
 6638 016a 10E0      		ldi r17,hi8(1)
 6639 016c 20E0      		ldi r18,hlo8(1)
 6640 016e 30E0      		ldi r19,hhi8(1)
 6641 0170 0E94 0000 		call fat_append_clusters
 6642               	.LVL275:
 6643 0174 5B01      		movw r10,r22
 6644 0176 6C01      		movw r12,r24
 6645               	.LVL276:
 6646 0178 A889      		ldd r26,Y+16
 6647 017a B989      		ldd r27,Y+17
 6648 017c 9396      		adiw r26,35
 6649 017e 6D93      		st X+,r22
 6650 0180 7D93      		st X+,r23
 6651 0182 8D93      		st X+,r24
 6652 0184 9C93      		st X,r25
 6653 0186 9697      		sbiw r26,35+3
 6654               	.LSM399:
 6655 0188 6115      		cp r22,__zero_reg__
 6656 018a 7105      		cpc r23,__zero_reg__
 6657 018c 8105      		cpc r24,__zero_reg__
 6658 018e 9105      		cpc r25,__zero_reg__
 6659 0190 01F4      		brne .+2
 6660 0192 00C0      		rjmp .L584
 6661               	.LVL277:
 6662               	.L538:
 6663               	.LSM400:
 6664 0194 E889      		ldd r30,Y+16
 6665 0196 F989      		ldd r31,Y+17
 6666 0198 73A9      		ldd r23,Z+51
 6667 019a 64A9      		ldd r22,Z+52
 6668 019c 55A9      		ldd r21,Z+53
 6669 019e 46A9      		ldd r20,Z+54
 6670 01a0 E7A9      		ldd r30,Z+55
 6671 01a2 A889      		ldd r26,Y+16
 6672 01a4 B989      		ldd r27,Y+17
 6673 01a6 D896      		adiw r26,56
 6674 01a8 3C91      		ld r19,X
 6675 01aa D897      		sbiw r26,56
 6676 01ac D996      		adiw r26,57
 6677 01ae 2C91      		ld r18,X
 6678 01b0 D997      		sbiw r26,57
 6679 01b2 DA96      		adiw r26,58
 6680 01b4 9C91      		ld r25,X
 6681 01b6 DA97      		sbiw r26,58
 6682 01b8 872F      		mov r24,r23
 6683 01ba 862B      		or r24,r22
 6684 01bc 852B      		or r24,r21
 6685 01be 842B      		or r24,r20
 6686 01c0 8E2B      		or r24,r30
 6687 01c2 832B      		or r24,r19
 6688 01c4 822B      		or r24,r18
 6689 01c6 892B      		or r24,r25
 6690 01c8 01F0      		breq .L537
 6691               	.LBB54:
 6692               	.LSM401:
 6693 01ca 9B01      		movw r18,r22
 6694 01cc CA01      		movw r24,r20
 6695 01ce 632E      		mov r6,r19
 6696 01d0 722E      		mov r7,r18
 6697 01d2 892E      		mov r8,r25
 6698 01d4 982E      		mov r9,r24
 6699               	.LVL278:
 6700               	.LSM402:
 6701 01d6 E985      		ldd r30,Y+9
 6702 01d8 FA85      		ldd r31,Y+10
 6703 01da 1F01      		movw r2,r30
 6704 01dc 4424      		clr r4
 6705 01de 5524      		clr r5
 6706 01e0 7D01      		movw r14,r26
 6707 01e2 00C0      		rjmp .L589
 6708               	.L542:
 6709               	.LSM403:
 6710 01e4 6218      		sub r6,r2
 6711 01e6 7308      		sbc r7,r3
 6712 01e8 8408      		sbc r8,r4
 6713 01ea 9508      		sbc r9,r5
 6714               	.LVL279:
 6715               	.LSM404:
 6716 01ec D701      		movw r26,r14
 6717 01ee 8D91      		ld r24,X+
 6718 01f0 9C91      		ld r25,X
 6719 01f2 B601      		movw r22,r12
 6720 01f4 A501      		movw r20,r10
 6721 01f6 0E94 0000 		call fat_get_next_cluster
 6722               	.LVL280:
 6723               	.LSM405:
 6724 01fa 6115      		cp r22,__zero_reg__
 6725 01fc 7105      		cpc r23,__zero_reg__
 6726 01fe 8105      		cpc r24,__zero_reg__
 6727 0200 9105      		cpc r25,__zero_reg__
 6728 0202 01F4      		brne .L582
 6729               	.LSM406:
 6730 0204 6114      		cp r6,__zero_reg__
 6731 0206 7104      		cpc r7,__zero_reg__
 6732 0208 8104      		cpc r8,__zero_reg__
 6733 020a 9104      		cpc r9,__zero_reg__
 6734 020c 01F0      		breq .+2
 6735 020e 00C0      		rjmp .L584
 6736               	.LSM407:
 6737 0210 F701      		movw r30,r14
 6738 0212 8081      		ld r24,Z
 6739 0214 9181      		ldd r25,Z+1
 6740 0216 B601      		movw r22,r12
 6741 0218 A501      		movw r20,r10
 6742 021a 01E0      		ldi r16,lo8(1)
 6743 021c 10E0      		ldi r17,hi8(1)
 6744 021e 20E0      		ldi r18,hlo8(1)
 6745 0220 30E0      		ldi r19,hhi8(1)
 6746 0222 0E94 0000 		call fat_append_clusters
 6747               	.LVL281:
 6748               	.LSM408:
 6749 0226 6115      		cp r22,__zero_reg__
 6750 0228 7105      		cpc r23,__zero_reg__
 6751 022a 8105      		cpc r24,__zero_reg__
 6752 022c 9105      		cpc r25,__zero_reg__
 6753 022e 01F4      		brne .+2
 6754 0230 00C0      		rjmp .L584
 6755               	.L582:
 6756               	.LSM409:
 6757 0232 5B01      		movw r10,r22
 6758 0234 6C01      		movw r12,r24
 6759               	.LVL282:
 6760               	.L589:
 6761               	.LSM410:
 6762 0236 6214      		cp r6,r2
 6763 0238 7304      		cpc r7,r3
 6764 023a 8404      		cpc r8,r4
 6765 023c 9504      		cpc r9,r5
 6766 023e 00F4      		brsh .L542
 6767 0240 F98A      		std Y+17,r15
 6768 0242 E88A      		std Y+16,r14
 6769               	.LVL283:
 6770               	.L537:
 6771               	.LBE54:
 6772               	.LSM411:
 6773 0244 6984      		ldd r6,Y+9
 6774 0246 7A84      		ldd r7,Y+10
 6775 0248 0894      		sec
 6776 024a 6108      		sbc r6,__zero_reg__
 6777 024c 7108      		sbc r7,__zero_reg__
 6778 024e E980      		ldd r14,Y+1
 6779 0250 FA80      		ldd r15,Y+2
 6780 0252 6E20      		and r6,r14
 6781 0254 7F20      		and r7,r15
 6782 0256 8D84      		ldd r8,Y+13
 6783 0258 9E84      		ldd r9,Y+14
 6784 025a 0889      		ldd r16,Y+16
 6785 025c 1989      		ldd r17,Y+17
 6786 025e 1C8B      		std Y+20,r17
 6787 0260 0B8B      		std Y+19,r16
 6788               	.LVL284:
 6789               	.L573:
 6790               	.LBB55:
 6791               	.LSM412:
 6792 0262 AB89      		ldd r26,Y+19
 6793 0264 BC89      		ldd r27,Y+20
 6794 0266 0D91      		ld r16,X+
 6795 0268 1C91      		ld r17,X
 6796 026a C801      		movw r24,r16
 6797 026c B601      		movw r22,r12
 6798 026e A501      		movw r20,r10
 6799 0270 0E94 0000 		call fat_cluster_offset
 6800 0274 A22F      		mov r26,r18
 6801 0276 3F87      		std Y+15,r19
 6802 0278 488B      		std Y+16,r20
 6803 027a 5A8B      		std Y+18,r21
 6804               	.LVL285:
 6805               	.LSM413:
 6806 027c 4984      		ldd r4,Y+9
 6807 027e 5A84      		ldd r5,Y+10
 6808 0280 4618      		sub r4,r6
 6809 0282 5708      		sbc r5,r7
 6810 0284 8414      		cp r8,r4
 6811 0286 9504      		cpc r9,r5
 6812 0288 00F4      		brsh .L543
 6813 028a 2401      		movw r4,r8
 6814               	.L543:
 6815               	.LVL286:
 6816               	.LSM414:
 6817 028c F801      		movw r30,r16
 6818 028e 2080      		ld r2,Z
 6819 0290 3180      		ldd r3,Z+1
 6820               	.LSM415:
 6821 0292 7301      		movw r14,r6
 6822 0294 00E0      		ldi r16,lo8(0)
 6823 0296 10E0      		ldi r17,hi8(0)
 6824 0298 20E0      		ldi r18,lo8(0)
 6825 029a 30E0      		ldi r19,hi8(0)
 6826 029c A901      		movw r20,r18
 6827               	.LVL287:
 6828 029e 6982      		std Y+1,r6
 6829 02a0 FA82      		std Y+2,r15
 6830 02a2 0B83      		std Y+3,r16
 6831 02a4 1C83      		std Y+4,r17
 6832 02a6 2D83      		std Y+5,r18
 6833 02a8 3E83      		std Y+6,r19
 6834 02aa 4F83      		std Y+7,r20
 6835 02ac 5887      		std Y+8,r21
 6836 02ae 262D      		mov r18,r6
 6837 02b0 2A0F      		add r18,r26
 6838 02b2 41E0      		ldi r20,lo8(1)
 6839               	.LVL288:
 6840 02b4 2615      		cp r18,r6
 6841 02b6 00F0      		brlo .L544
 6842 02b8 40E0      		ldi r20,lo8(0)
 6843               	.L544:
 6844 02ba FA81      		ldd r31,Y+2
 6845 02bc FF84      		ldd r15,Y+15
 6846 02be FF0D      		add r31,r15
 6847 02c0 E1E0      		ldi r30,lo8(1)
 6848 02c2 0A81      		ldd r16,Y+2
 6849 02c4 F017      		cp r31,r16
 6850 02c6 00F0      		brlo .L545
 6851 02c8 E0E0      		ldi r30,lo8(0)
 6852               	.L545:
 6853 02ca 342F      		mov r19,r20
 6854               	.LVL289:
 6855 02cc 3F0F      		add r19,r31
 6856 02ce A1E0      		ldi r26,lo8(1)
 6857               	.LVL290:
 6858 02d0 3F17      		cp r19,r31
 6859 02d2 00F0      		brlo .L546
 6860 02d4 A0E0      		ldi r26,lo8(0)
 6861               	.L546:
 6862 02d6 EA2B      		or r30,r26
 6863 02d8 5B81      		ldd r21,Y+3
 6864 02da 1889      		ldd r17,Y+16
 6865 02dc 510F      		add r21,r17
 6866 02de F1E0      		ldi r31,lo8(1)
 6867 02e0 4B81      		ldd r20,Y+3
 6868 02e2 5417      		cp r21,r20
 6869 02e4 00F0      		brlo .L547
 6870 02e6 F0E0      		ldi r31,lo8(0)
 6871               	.L547:
 6872 02e8 4E2F      		mov r20,r30
 6873 02ea 450F      		add r20,r21
 6874 02ec E1E0      		ldi r30,lo8(1)
 6875 02ee 4517      		cp r20,r21
 6876 02f0 00F0      		brlo .L548
 6877 02f2 E0E0      		ldi r30,lo8(0)
 6878               	.L548:
 6879 02f4 FE2B      		or r31,r30
 6880 02f6 1C81      		ldd r17,Y+4
 6881 02f8 5A89      		ldd r21,Y+18
 6882 02fa 150F      		add r17,r21
 6883 02fc E1E0      		ldi r30,lo8(1)
 6884 02fe AC81      		ldd r26,Y+4
 6885 0300 1A17      		cp r17,r26
 6886 0302 00F0      		brlo .L549
 6887 0304 E0E0      		ldi r30,lo8(0)
 6888               	.L549:
 6889 0306 5F2F      		mov r21,r31
 6890 0308 510F      		add r21,r17
 6891 030a F1E0      		ldi r31,lo8(1)
 6892 030c 5117      		cp r21,r17
 6893 030e 00F0      		brlo .L550
 6894 0310 F0E0      		ldi r31,lo8(0)
 6895               	.L550:
 6896 0312 EF2B      		or r30,r31
 6897 0314 1D81      		ldd r17,Y+5
 6898 0316 160F      		add r17,r22
 6899 0318 F1E0      		ldi r31,lo8(1)
 6900 031a BD81      		ldd r27,Y+5
 6901 031c 1B17      		cp r17,r27
 6902 031e 00F0      		brlo .L551
 6903 0320 F0E0      		ldi r31,lo8(0)
 6904               	.L551:
 6905 0322 6E2F      		mov r22,r30
 6906 0324 610F      		add r22,r17
 6907 0326 E1E0      		ldi r30,lo8(1)
 6908 0328 6117      		cp r22,r17
 6909 032a 00F0      		brlo .L552
 6910 032c E0E0      		ldi r30,lo8(0)
 6911               	.L552:
 6912 032e FE2B      		or r31,r30
 6913 0330 1E81      		ldd r17,Y+6
 6914 0332 170F      		add r17,r23
 6915 0334 E1E0      		ldi r30,lo8(1)
 6916 0336 EE80      		ldd r14,Y+6
 6917 0338 1E15      		cp r17,r14
 6918 033a 00F0      		brlo .L553
 6919 033c E0E0      		ldi r30,lo8(0)
 6920               	.L553:
 6921 033e 7F2F      		mov r23,r31
 6922 0340 710F      		add r23,r17
 6923 0342 F1E0      		ldi r31,lo8(1)
 6924 0344 7117      		cp r23,r17
 6925 0346 00F0      		brlo .L554
 6926 0348 F0E0      		ldi r31,lo8(0)
 6927               	.L554:
 6928 034a EF2B      		or r30,r31
 6929 034c FF81      		ldd r31,Y+7
 6930 034e F80F      		add r31,r24
 6931 0350 11E0      		ldi r17,lo8(1)
 6932 0352 FF80      		ldd r15,Y+7
 6933 0354 FF15      		cp r31,r15
 6934 0356 00F0      		brlo .L555
 6935 0358 10E0      		ldi r17,lo8(0)
 6936               	.L555:
 6937 035a 8E2F      		mov r24,r30
 6938 035c 8F0F      		add r24,r31
 6939 035e E1E0      		ldi r30,lo8(1)
 6940 0360 8F17      		cp r24,r31
 6941 0362 00F0      		brlo .L556
 6942 0364 E0E0      		ldi r30,lo8(0)
 6943               	.L556:
 6944 0366 1E2B      		or r17,r30
 6945 0368 0885      		ldd r16,Y+8
 6946 036a 900F      		add r25,r16
 6947               	.LSM416:
 6948 036c D101      		movw r26,r2
 6949 036e 1496      		adiw r26,4
 6950 0370 ED91      		ld r30,X+
 6951 0372 FC91      		ld r31,X
 6952 0374 1597      		sbiw r26,4+1
 6953 0376 910F      		add r25,r17
 6954 0378 0B85      		ldd r16,Y+11
 6955 037a 1C85      		ldd r17,Y+12
 6956 037c 7201      		movw r14,r4
 6957 037e 0995      		icall
 6958 0380 8823      		tst r24
 6959 0382 01F4      		brne .+2
 6960 0384 00C0      		rjmp .L590
 6961               	.LVL291:
 6962               	.LSM417:
 6963 0386 8418      		sub r8,r4
 6964 0388 9508      		sbc r9,r5
 6965               	.LVL292:
 6966               	.LSM418:
 6967 038a 9201      		movw r18,r4
 6968 038c 40E0      		ldi r20,lo8(0)
 6969 038e 50E0      		ldi r21,hi8(0)
 6970 0390 60E0      		ldi r22,lo8(0)
 6971 0392 70E0      		ldi r23,hi8(0)
 6972 0394 CB01      		movw r24,r22
 6973 0396 AB89      		ldd r26,Y+19
 6974 0398 BC89      		ldd r27,Y+20
 6975 039a D396      		adiw r26,51
 6976 039c EC91      		ld r30,X
 6977 039e D397      		sbiw r26,51
 6978 03a0 D496      		adiw r26,52
 6979 03a2 2C90      		ld r2,X
 6980 03a4 D497      		sbiw r26,52
 6981 03a6 D596      		adiw r26,53
 6982 03a8 EC90      		ld r14,X
 6983 03aa D597      		sbiw r26,53
 6984 03ac D696      		adiw r26,54
 6985 03ae FC90      		ld r15,X
 6986 03b0 D697      		sbiw r26,54
 6987 03b2 D796      		adiw r26,55
 6988 03b4 FC91      		ld r31,X
 6989 03b6 D797      		sbiw r26,55
 6990 03b8 D896      		adiw r26,56
 6991 03ba 3C90      		ld r3,X
 6992 03bc D897      		sbiw r26,56
 6993 03be D996      		adiw r26,57
 6994 03c0 BC91      		ld r27,X
 6995 03c2 B983      		std Y+1,r27
 6996 03c4 AB89      		ldd r26,Y+19
 6997 03c6 BC89      		ldd r27,Y+20
 6998 03c8 DA96      		adiw r26,58
 6999 03ca BC91      		ld r27,X
 7000 03cc BF87      		std Y+15,r27
 7001 03ce E40D      		add r30,r4
 7002 03d0 01E0      		ldi r16,lo8(1)
 7003 03d2 E415      		cp r30,r4
 7004 03d4 00F0      		brlo .L558
 7005 03d6 00E0      		ldi r16,lo8(0)
 7006               	.L558:
 7007 03d8 B22D      		mov r27,r2
 7008 03da B30F      		add r27,r19
 7009 03dc 11E0      		ldi r17,lo8(1)
 7010 03de B317      		cp r27,r19
 7011 03e0 00F0      		brlo .L559
 7012 03e2 10E0      		ldi r17,lo8(0)
 7013               	.L559:
 7014 03e4 0B0F      		add r16,r27
 7015 03e6 A1E0      		ldi r26,lo8(1)
 7016 03e8 0B17      		cp r16,r27
 7017 03ea 00F0      		brlo .L560
 7018 03ec A0E0      		ldi r26,lo8(0)
 7019               	.L560:
 7020 03ee 1A2B      		or r17,r26
 7021 03f0 A42F      		mov r26,r20
 7022 03f2 AE0D      		add r26,r14
 7023 03f4 B1E0      		ldi r27,lo8(1)
 7024 03f6 A417      		cp r26,r20
 7025 03f8 00F0      		brlo .L561
 7026 03fa B0E0      		ldi r27,lo8(0)
 7027               	.L561:
 7028 03fc 1A0F      		add r17,r26
 7029 03fe EE24      		clr r14
 7030 0400 E394      		inc r14
 7031 0402 1A17      		cp r17,r26
 7032 0404 00F0      		brlo .L562
 7033 0406 EE24      		clr r14
 7034               	.L562:
 7035 0408 BE29      		or r27,r14
 7036 040a F50E      		add r15,r21
 7037 040c A1E0      		ldi r26,lo8(1)
 7038 040e F516      		cp r15,r21
 7039 0410 00F0      		brlo .L563
 7040 0412 A0E0      		ldi r26,lo8(0)
 7041               	.L563:
 7042 0414 BF0D      		add r27,r15
 7043 0416 B88B      		std Y+16,r27
 7044 0418 EE24      		clr r14
 7045 041a E394      		inc r14
 7046 041c BF15      		cp r27,r15
 7047 041e 00F0      		brlo .L564
 7048 0420 EE24      		clr r14
 7049               	.L564:
 7050 0422 AE29      		or r26,r14
 7051 0424 F60F      		add r31,r22
 7052 0426 2224      		clr r2
 7053 0428 2394      		inc r2
 7054 042a F617      		cp r31,r22
 7055 042c 00F0      		brlo .L565
 7056 042e 2224      		clr r2
 7057               	.L565:
 7058 0430 AF0F      		add r26,r31
 7059 0432 AA8B      		std Y+18,r26
 7060 0434 FF24      		clr r15
 7061 0436 F394      		inc r15
 7062 0438 AF17      		cp r26,r31
 7063 043a 00F0      		brlo .L566
 7064 043c FF24      		clr r15
 7065               	.L566:
 7066 043e 2F28      		or r2,r15
 7067 0440 F72F      		mov r31,r23
 7068 0442 F30D      		add r31,r3
 7069 0444 3324      		clr r3
 7070 0446 3394      		inc r3
 7071 0448 F717      		cp r31,r23
 7072 044a 00F0      		brlo .L567
 7073 044c 3324      		clr r3
 7074               	.L567:
 7075 044e 2F0E      		add r2,r31
 7076 0450 FF24      		clr r15
 7077 0452 F394      		inc r15
 7078 0454 2F16      		cp r2,r31
 7079 0456 00F0      		brlo .L568
 7080 0458 FF24      		clr r15
 7081               	.L568:
 7082 045a 3F28      		or r3,r15
 7083 045c F981      		ldd r31,Y+1
 7084 045e F80F      		add r31,r24
 7085 0460 EE24      		clr r14
 7086 0462 E394      		inc r14
 7087 0464 F817      		cp r31,r24
 7088 0466 00F0      		brlo .L569
 7089 0468 EE24      		clr r14
 7090               	.L569:
 7091 046a 3F0E      		add r3,r31
 7092 046c FF24      		clr r15
 7093 046e F394      		inc r15
 7094 0470 3F16      		cp r3,r31
 7095 0472 00F0      		brlo .L570
 7096 0474 FF24      		clr r15
 7097               	.L570:
 7098 0476 FE28      		or r15,r14
 7099 0478 8F85      		ldd r24,Y+15
 7100 047a 890F      		add r24,r25
 7101 047c F80E      		add r15,r24
 7102 047e AB89      		ldd r26,Y+19
 7103 0480 BC89      		ldd r27,Y+20
 7104 0482 D396      		adiw r26,51
 7105 0484 EC93      		st X,r30
 7106 0486 D397      		sbiw r26,51
 7107 0488 D496      		adiw r26,52
 7108 048a 0C93      		st X,r16
 7109 048c D497      		sbiw r26,52
 7110 048e D596      		adiw r26,53
 7111 0490 1C93      		st X,r17
 7112 0492 D597      		sbiw r26,53
 7113 0494 E889      		ldd r30,Y+16
 7114 0496 D696      		adiw r26,54
 7115 0498 EC93      		st X,r30
 7116 049a D697      		sbiw r26,54
 7117 049c FA89      		ldd r31,Y+18
 7118 049e D796      		adiw r26,55
 7119 04a0 FC93      		st X,r31
 7120 04a2 D797      		sbiw r26,55
 7121 04a4 D896      		adiw r26,56
 7122 04a6 2C92      		st X,r2
 7123 04a8 D897      		sbiw r26,56
 7124 04aa D996      		adiw r26,57
 7125 04ac 3C92      		st X,r3
 7126 04ae D997      		sbiw r26,57
 7127 04b0 DA96      		adiw r26,58
 7128 04b2 FC92      		st X,r15
 7129 04b4 DA97      		sbiw r26,58
 7130               	.LSM419:
 7131 04b6 C201      		movw r24,r4
 7132 04b8 860D      		add r24,r6
 7133 04ba 971D      		adc r25,r7
 7134 04bc E984      		ldd r14,Y+9
 7135 04be FA84      		ldd r15,Y+10
 7136 04c0 8E15      		cp r24,r14
 7137 04c2 9F05      		cpc r25,r15
 7138 04c4 00F0      		brlo .L571
 7139               	.LBB56:
 7140               	.LSM420:
 7141 04c6 8D91      		ld r24,X+
 7142 04c8 9C91      		ld r25,X
 7143 04ca B601      		movw r22,r12
 7144 04cc A501      		movw r20,r10
 7145 04ce 0E94 0000 		call fat_get_next_cluster
 7146               	.LVL293:
 7147               	.LSM421:
 7148 04d2 6115      		cp r22,__zero_reg__
 7149 04d4 7105      		cpc r23,__zero_reg__
 7150 04d6 8105      		cpc r24,__zero_reg__
 7151 04d8 9105      		cpc r25,__zero_reg__
 7152 04da 01F4      		brne .L586
 7153               	.LSM422:
 7154 04dc 8114      		cp r8,__zero_reg__
 7155 04de 9104      		cpc r9,__zero_reg__
 7156 04e0 01F0      		breq .L572
 7157               	.LSM423:
 7158 04e2 AB89      		ldd r26,Y+19
 7159 04e4 BC89      		ldd r27,Y+20
 7160 04e6 8D91      		ld r24,X+
 7161 04e8 9C91      		ld r25,X
 7162 04ea B601      		movw r22,r12
 7163 04ec A501      		movw r20,r10
 7164 04ee 01E0      		ldi r16,lo8(1)
 7165 04f0 10E0      		ldi r17,hi8(1)
 7166 04f2 20E0      		ldi r18,hlo8(1)
 7167 04f4 30E0      		ldi r19,hhi8(1)
 7168 04f6 0E94 0000 		call fat_append_clusters
 7169               	.LVL294:
 7170               	.LSM424:
 7171 04fa 6115      		cp r22,__zero_reg__
 7172 04fc 7105      		cpc r23,__zero_reg__
 7173 04fe 8105      		cpc r24,__zero_reg__
 7174 0500 9105      		cpc r25,__zero_reg__
 7175 0502 01F4      		brne .L586
 7176               	.L572:
 7177 0504 EB89      		ldd r30,Y+19
 7178 0506 FC89      		ldd r31,Y+20
 7179 0508 F98B      		std Y+17,r31
 7180 050a E88B      		std Y+16,r30
 7181               	.LSM425:
 7182 050c 13AE      		std Z+59,__zero_reg__
 7183 050e 14AE      		std Z+60,__zero_reg__
 7184 0510 15AE      		std Z+61,__zero_reg__
 7185 0512 16AE      		std Z+62,__zero_reg__
 7186               	.LSM426:
 7187 0514 00C0      		rjmp .L557
 7188               	.L586:
 7189               	.LSM427:
 7190 0516 5B01      		movw r10,r22
 7191 0518 6C01      		movw r12,r24
 7192               	.LVL295:
 7193               	.LSM428:
 7194 051a 6624      		clr r6
 7195 051c 7724      		clr r7
 7196               	.LVL296:
 7197               	.L571:
 7198               	.LBE56:
 7199               	.LSM429:
 7200 051e EB89      		ldd r30,Y+19
 7201 0520 FC89      		ldd r31,Y+20
 7202 0522 A3AE      		std Z+59,r10
 7203 0524 B4AE      		std Z+60,r11
 7204 0526 C5AE      		std Z+61,r12
 7205 0528 D6AE      		std Z+62,r13
 7206               	.LBE55:
 7207               	.LSM430:
 7208 052a 8114      		cp r8,__zero_reg__
 7209 052c 9104      		cpc r9,__zero_reg__
 7210 052e 01F0      		breq .L591
 7211               	.LBB57:
 7212               	.LSM431:
 7213 0530 EB84      		ldd r14,Y+11
 7214 0532 FC84      		ldd r15,Y+12
 7215 0534 E40C      		add r14,r4
 7216 0536 F51C      		adc r15,r5
 7217 0538 FC86      		std Y+12,r15
 7218 053a EB86      		std Y+11,r14
 7219 053c 00C0      		rjmp .L573
 7220               	.LVL297:
 7221               	.L590:
 7222 053e 0B89      		ldd r16,Y+19
 7223 0540 1C89      		ldd r17,Y+20
 7224 0542 198B      		std Y+17,r17
 7225 0544 088B      		std Y+16,r16
 7226 0546 00C0      		rjmp .L557
 7227               	.LVL298:
 7228               	.L591:
 7229 0548 2B89      		ldd r18,Y+19
 7230 054a 3C89      		ldd r19,Y+20
 7231 054c 398B      		std Y+17,r19
 7232 054e 288B      		std Y+16,r18
 7233               	.LVL299:
 7234               	.L557:
 7235               	.LBE57:
 7236               	.LSM432:
 7237 0550 A889      		ldd r26,Y+16
 7238 0552 B989      		ldd r27,Y+17
 7239 0554 D396      		adiw r26,51
 7240 0556 7C91      		ld r23,X
 7241 0558 D397      		sbiw r26,51
 7242 055a D496      		adiw r26,52
 7243 055c 2C91      		ld r18,X
 7244 055e D497      		sbiw r26,52
 7245 0560 D596      		adiw r26,53
 7246 0562 9C91      		ld r25,X
 7247 0564 D597      		sbiw r26,53
 7248 0566 D696      		adiw r26,54
 7249 0568 8C91      		ld r24,X
 7250 056a D697      		sbiw r26,54
 7251 056c D796      		adiw r26,55
 7252 056e 3C91      		ld r19,X
 7253 0570 D797      		sbiw r26,55
 7254 0572 D896      		adiw r26,56
 7255 0574 4C91      		ld r20,X
 7256 0576 D897      		sbiw r26,56
 7257 0578 D996      		adiw r26,57
 7258 057a 5C91      		ld r21,X
 7259 057c D997      		sbiw r26,57
 7260 057e DA96      		adiw r26,58
 7261 0580 6C91      		ld r22,X
 7262 0582 DA97      		sbiw r26,58
 7263 0584 9796      		adiw r26,39
 7264 0586 4D90      		ld r4,X+
 7265 0588 5D90      		ld r5,X+
 7266 058a 6D90      		ld r6,X+
 7267 058c 7C90      		ld r7,X
 7268 058e 9A97      		sbiw r26,39+3
 7269               	.LVL300:
 7270 0590 6301      		movw r12,r6
 7271 0592 5201      		movw r10,r4
 7272               	.LVL301:
 7273 0594 EE24      		clr r14
 7274 0596 FF24      		clr r15
 7275 0598 8701      		movw r16,r14
 7276 059a 1617      		cp r17,r22
 7277 059c 00F0      		brlo .L588
 7278 059e 6117      		cp r22,r17
 7279 05a0 01F4      		brne .L574
 7280 05a2 0517      		cp r16,r21
 7281 05a4 00F0      		brlo .L588
 7282 05a6 5017      		cp r21,r16
 7283 05a8 01F4      		brne .L574
 7284 05aa F416      		cp r15,r20
 7285 05ac 00F0      		brlo .L588
 7286 05ae 4F15      		cp r20,r15
 7287 05b0 01F4      		brne .L574
 7288 05b2 E316      		cp r14,r19
 7289 05b4 00F0      		brlo .L588
 7290 05b6 3E15      		cp r19,r14
 7291 05b8 01F4      		brne .L574
 7292 05ba D816      		cp r13,r24
 7293 05bc 00F0      		brlo .L588
 7294 05be 8D15      		cp r24,r13
 7295 05c0 01F4      		brne .L574
 7296 05c2 C916      		cp r12,r25
 7297 05c4 00F0      		brlo .L588
 7298 05c6 9C15      		cp r25,r12
 7299 05c8 01F4      		brne .L574
 7300 05ca B216      		cp r11,r18
 7301 05cc 00F0      		brlo .L588
 7302 05ce 2B15      		cp r18,r11
 7303 05d0 01F4      		brne .L574
 7304 05d2 4716      		cp r4,r23
 7305 05d4 00F4      		brsh .L574
 7306               	.L588:
 7307               	.LBB58:
 7308               	.LSM433:
 7309 05d6 E889      		ldd r30,Y+16
 7310 05d8 F989      		ldd r31,Y+17
 7311 05da 77A3      		std Z+39,r23
 7312 05dc 20A7      		std Z+40,r18
 7313 05de 91A7      		std Z+41,r25
 7314 05e0 82A7      		std Z+42,r24
 7315               	.LSM434:
 7316 05e2 DF01      		movw r26,r30
 7317 05e4 8D91      		ld r24,X+
 7318 05e6 9D91      		ld r25,X+
 7319 05e8 BD01      		movw r22,r26
 7320 05ea 0E94 0000 		call fat_write_dir_entry
 7321 05ee 8823      		tst r24
 7322 05f0 01F4      		brne .L574
 7323               	.LSM435:
 7324 05f2 E889      		ldd r30,Y+16
 7325 05f4 F989      		ldd r31,Y+17
 7326 05f6 83A8      		ldd r8,Z+51
 7327 05f8 94A8      		ldd r9,Z+52
 7328               	.LVL302:
 7329 05fa 8418      		sub r8,r4
 7330 05fc 9508      		sbc r9,r5
 7331               	.LVL303:
 7332               	.LSM436:
 7333 05fe A3AA      		std Z+51,r10
 7334 0600 B4AA      		std Z+52,r11
 7335 0602 C5AA      		std Z+53,r12
 7336 0604 D6AA      		std Z+54,r13
 7337 0606 17AA      		std Z+55,__zero_reg__
 7338 0608 10AE      		std Z+56,__zero_reg__
 7339 060a 11AE      		std Z+57,__zero_reg__
 7340 060c 12AE      		std Z+58,__zero_reg__
 7341               	.L574:
 7342               	.LBE58:
 7343               	.LSM437:
 7344 060e 2D85      		ldd r18,Y+13
 7345 0610 3E85      		ldd r19,Y+14
 7346 0612 2819      		sub r18,r8
 7347 0614 3909      		sbc r19,r9
 7348 0616 00C0      		rjmp .L535
 7349               	.LVL304:
 7350               	.L584:
 7351               	.LBB59:
 7352               	.LSM438:
 7353 0618 2FEF      		ldi r18,lo8(-1)
 7354 061a 3FEF      		ldi r19,hi8(-1)
 7355               	.LVL305:
 7356               	.L535:
 7357               	.LBE59:
 7358               	.LSM439:
 7359 061c C901      		movw r24,r18
 7360               	/* epilogue start */
 7361 061e 6496      		adiw r28,20
 7362               	.LVL306:
 7363 0620 0FB6      		in __tmp_reg__,__SREG__
 7364 0622 F894      		cli
 7365 0624 DEBF      		out __SP_H__,r29
 7366 0626 0FBE      		out __SREG__,__tmp_reg__
 7367 0628 CDBF      		out __SP_L__,r28
 7368               	.LVL307:
 7369 062a CF91      		pop r28
 7370 062c DF91      		pop r29
 7371               	.LVL308:
 7372 062e 1F91      		pop r17
 7373 0630 0F91      		pop r16
 7374 0632 FF90      		pop r15
 7375 0634 EF90      		pop r14
 7376 0636 DF90      		pop r13
 7377 0638 CF90      		pop r12
 7378 063a BF90      		pop r11
 7379 063c AF90      		pop r10
 7380 063e 9F90      		pop r9
 7381 0640 8F90      		pop r8
 7382 0642 7F90      		pop r7
 7383 0644 6F90      		pop r6
 7384 0646 5F90      		pop r5
 7385 0648 4F90      		pop r4
 7386 064a 3F90      		pop r3
 7387 064c 2F90      		pop r2
 7388 064e 0895      		ret
 7389               	.LFE14:
 7391               		.section	.text.fat_resize_file,"ax",@progbits
 7392               	.global	fat_resize_file
 7394               	fat_resize_file:
 7395               	.LFB16:
 7396               	.LSM440:
 7397               	.LVL309:
 7398 0000 2F92      		push r2
 7399 0002 3F92      		push r3
 7400 0004 4F92      		push r4
 7401 0006 5F92      		push r5
 7402 0008 6F92      		push r6
 7403 000a 7F92      		push r7
 7404 000c 8F92      		push r8
 7405 000e 9F92      		push r9
 7406 0010 AF92      		push r10
 7407 0012 BF92      		push r11
 7408 0014 CF92      		push r12
 7409 0016 DF92      		push r13
 7410 0018 EF92      		push r14
 7411 001a FF92      		push r15
 7412 001c 0F93      		push r16
 7413 001e 1F93      		push r17
 7414 0020 DF93      		push r29
 7415 0022 CF93      		push r28
 7416 0024 CDB7      		in r28,__SP_L__
 7417 0026 DEB7      		in r29,__SP_H__
 7418 0028 2E97      		sbiw r28,14
 7419 002a 0FB6      		in __tmp_reg__,__SREG__
 7420 002c F894      		cli
 7421 002e DEBF      		out __SP_H__,r29
 7422 0030 0FBE      		out __SREG__,__tmp_reg__
 7423 0032 CDBF      		out __SP_L__,r28
 7424               	/* prologue: function */
 7425               	/* frame size = 14 */
 7426               	/* stack size = 32 */
 7427               	.L__stack_usage = 32
 7428 0034 6C01      		movw r12,r24
 7429 0036 4B87      		std Y+11,r20
 7430 0038 5C87      		std Y+12,r21
 7431 003a 6D87      		std Y+13,r22
 7432 003c 7E87      		std Y+14,r23
 7433               	.LSM441:
 7434 003e 0097      		sbiw r24,0
 7435 0040 01F4      		brne .+2
 7436 0042 00C0      		rjmp .L636
 7437               	.LVL310:
 7438               	.LSM442:
 7439 0044 DC01      		movw r26,r24
 7440 0046 9396      		adiw r26,35
 7441 0048 8D90      		ld r8,X+
 7442 004a 9D90      		ld r9,X+
 7443 004c AD90      		ld r10,X+
 7444 004e BC90      		ld r11,X
 7445 0050 9697      		sbiw r26,35+3
 7446               	.LVL311:
 7447               	.LSM443:
 7448 0052 ED91      		ld r30,X+
 7449 0054 FC91      		ld r31,X
 7450 0056 1197      		sbiw r26,1
 7451 0058 408C      		ldd r4,Z+24
 7452 005a 518C      		ldd r5,Z+25
 7453               	.LVL312:
 7454               	.LSM444:
 7455 005c 8114      		cp r8,__zero_reg__
 7456 005e 9104      		cpc r9,__zero_reg__
 7457 0060 A104      		cpc r10,__zero_reg__
 7458 0062 B104      		cpc r11,__zero_reg__
 7459 0064 01F0      		breq .L594
 7460               	.L597:
 7461               	.LSM445:
 7462 0066 EB84      		ldd r14,Y+11
 7463 0068 FC84      		ldd r15,Y+12
 7464 006a 0D85      		ldd r16,Y+13
 7465 006c 1E85      		ldd r17,Y+14
 7466 006e EF82      		std Y+7,r14
 7467 0070 F886      		std Y+8,r15
 7468 0072 0987      		std Y+9,r16
 7469 0074 1A87      		std Y+10,r17
 7470               	.LSM446:
 7471 0076 6624      		clr r6
 7472 0078 7724      		clr r7
 7473 007a 00C0      		rjmp .L595
 7474               	.L594:
 7475               	.LSM447:
 7476 007c 8B85      		ldd r24,Y+11
 7477 007e 9C85      		ldd r25,Y+12
 7478 0080 AD85      		ldd r26,Y+13
 7479 0082 BE85      		ldd r27,Y+14
 7480 0084 0097      		sbiw r24,0
 7481 0086 A105      		cpc r26,__zero_reg__
 7482 0088 B105      		cpc r27,__zero_reg__
 7483 008a 01F4      		brne .+2
 7484 008c 00C0      		rjmp .L596
 7485 008e 00C0      		rjmp .L597
 7486               	.LVL313:
 7487               	.L599:
 7488               	.LBB66:
 7489               	.LSM448:
 7490 0090 D601      		movw r26,r12
 7491 0092 8D91      		ld r24,X+
 7492 0094 9C91      		ld r25,X
 7493 0096 B501      		movw r22,r10
 7494 0098 A401      		movw r20,r8
 7495 009a 0E94 0000 		call fat_get_next_cluster
 7496               	.LVL314:
 7497               	.LSM449:
 7498 009e 6115      		cp r22,__zero_reg__
 7499 00a0 7105      		cpc r23,__zero_reg__
 7500 00a2 8105      		cpc r24,__zero_reg__
 7501 00a4 9105      		cpc r25,__zero_reg__
 7502 00a6 01F0      		breq .L640
 7503               	.LVL315:
 7504 00a8 E418      		sub r14,r4
 7505 00aa F508      		sbc r15,r5
 7506 00ac 0609      		sbc r16,r6
 7507 00ae 1709      		sbc r17,r7
 7508               	.LVL316:
 7509               	.LSM450:
 7510 00b0 4B01      		movw r8,r22
 7511 00b2 5C01      		movw r10,r24
 7512               	.LVL317:
 7513               	.L595:
 7514               	.LBE66:
 7515               	.LSM451:
 7516 00b4 4E14      		cp r4,r14
 7517 00b6 5F04      		cpc r5,r15
 7518 00b8 6006      		cpc r6,r16
 7519 00ba 7106      		cpc r7,r17
 7520 00bc 00F0      		brlo .L599
 7521 00be 00C0      		rjmp .L644
 7522               	.LVL318:
 7523               	.L640:
 7524 00c0 EF82      		std Y+7,r14
 7525 00c2 F886      		std Y+8,r15
 7526 00c4 0987      		std Y+9,r16
 7527 00c6 1A87      		std Y+10,r17
 7528               	.LVL319:
 7529               	.L633:
 7530               	.LBB67:
 7531               	.LSM452:
 7532 00c8 6F81      		ldd r22,Y+7
 7533 00ca 7885      		ldd r23,Y+8
 7534 00cc 8985      		ldd r24,Y+9
 7535 00ce 9A85      		ldd r25,Y+10
 7536 00d0 640D      		add r22,r4
 7537 00d2 751D      		adc r23,r5
 7538 00d4 861D      		adc r24,r6
 7539 00d6 971D      		adc r25,r7
 7540 00d8 6150      		subi r22,lo8(-(-1))
 7541 00da 7040      		sbci r23,hi8(-(-1))
 7542 00dc 8040      		sbci r24,hlo8(-(-1))
 7543 00de 9040      		sbci r25,hhi8(-(-1))
 7544 00e0 A301      		movw r20,r6
 7545 00e2 9201      		movw r18,r4
 7546 00e4 0E94 0000 		call __udivmodsi4
 7547               	.LVL320:
 7548 00e8 8901      		movw r16,r18
 7549 00ea 9A01      		movw r18,r20
 7550               	.LSM453:
 7551 00ec F601      		movw r30,r12
 7552 00ee 8081      		ld r24,Z
 7553 00f0 9181      		ldd r25,Z+1
 7554 00f2 B501      		movw r22,r10
 7555 00f4 A401      		movw r20,r8
 7556 00f6 0E94 0000 		call fat_append_clusters
 7557               	.LVL321:
 7558               	.LSM454:
 7559 00fa 6115      		cp r22,__zero_reg__
 7560 00fc 7105      		cpc r23,__zero_reg__
 7561 00fe 8105      		cpc r24,__zero_reg__
 7562 0100 9105      		cpc r25,__zero_reg__
 7563 0102 01F4      		brne .+2
 7564 0104 00C0      		rjmp .L636
 7565               	.LSM455:
 7566 0106 8114      		cp r8,__zero_reg__
 7567 0108 9104      		cpc r9,__zero_reg__
 7568 010a A104      		cpc r10,__zero_reg__
 7569 010c B104      		cpc r11,__zero_reg__
 7570 010e 01F4      		brne .L601
 7571               	.LVL322:
 7572               	.LSM456:
 7573 0110 D601      		movw r26,r12
 7574 0112 9396      		adiw r26,35
 7575 0114 6D93      		st X+,r22
 7576 0116 7D93      		st X+,r23
 7577 0118 8D93      		st X+,r24
 7578 011a 9C93      		st X,r25
 7579 011c 9697      		sbiw r26,35+3
 7580 011e 4B01      		movw r8,r22
 7581 0120 5C01      		movw r10,r24
 7582               	.LVL323:
 7583               	.L601:
 7584               	.LBE67:
 7585               	.LSM457:
 7586 0122 EB84      		ldd r14,Y+11
 7587 0124 FC84      		ldd r15,Y+12
 7588 0126 0D85      		ldd r16,Y+13
 7589 0128 1E85      		ldd r17,Y+14
 7590               	.LVL324:
 7591 012a D601      		movw r26,r12
 7592 012c 9796      		adiw r26,39
 7593 012e ED92      		st X+,r14
 7594 0130 FD92      		st X+,r15
 7595 0132 0D93      		st X+,r16
 7596 0134 1C93      		st X,r17
 7597 0136 9A97      		sbiw r26,39+3
 7598               	.LSM458:
 7599 0138 E114      		cp r14,__zero_reg__
 7600 013a F104      		cpc r15,__zero_reg__
 7601 013c 0105      		cpc r16,__zero_reg__
 7602 013e 1105      		cpc r17,__zero_reg__
 7603 0140 01F4      		brne .L602
 7604               	.LSM459:
 7605 0142 F601      		movw r30,r12
 7606 0144 13A2      		std Z+35,__zero_reg__
 7607 0146 14A2      		std Z+36,__zero_reg__
 7608 0148 15A2      		std Z+37,__zero_reg__
 7609 014a 16A2      		std Z+38,__zero_reg__
 7610               	.L602:
 7611               	.LSM460:
 7612 014c D601      		movw r26,r12
 7613 014e 8D91      		ld r24,X+
 7614 0150 9D91      		ld r25,X+
 7615 0152 BD01      		movw r22,r26
 7616 0154 0E94 0000 		call fat_write_dir_entry
 7617 0158 8823      		tst r24
 7618 015a 01F4      		brne .+2
 7619 015c 00C0      		rjmp .L636
 7620               	.LSM461:
 7621 015e EB84      		ldd r14,Y+11
 7622 0160 FC84      		ldd r15,Y+12
 7623 0162 0D85      		ldd r16,Y+13
 7624 0164 1E85      		ldd r17,Y+14
 7625 0166 E114      		cp r14,__zero_reg__
 7626 0168 F104      		cpc r15,__zero_reg__
 7627 016a 0105      		cpc r16,__zero_reg__
 7628 016c 1105      		cpc r17,__zero_reg__
 7629 016e 01F4      		brne .L603
 7630               	.LSM462:
 7631 0170 D601      		movw r26,r12
 7632 0172 8D91      		ld r24,X+
 7633 0174 9C91      		ld r25,X
 7634 0176 1197      		sbiw r26,1
 7635 0178 B501      		movw r22,r10
 7636 017a A401      		movw r20,r8
 7637 017c 00C0      		rjmp .L643
 7638               	.L603:
 7639               	.LSM463:
 7640 017e EF80      		ldd r14,Y+7
 7641 0180 F884      		ldd r15,Y+8
 7642 0182 0985      		ldd r16,Y+9
 7643 0184 1A85      		ldd r17,Y+10
 7644 0186 4E14      		cp r4,r14
 7645 0188 5F04      		cpc r5,r15
 7646 018a 6006      		cpc r6,r16
 7647 018c 7106      		cpc r7,r17
 7648 018e 00F4      		brsh .+2
 7649 0190 00C0      		rjmp .L596
 7650               	.LSM464:
 7651 0192 D601      		movw r26,r12
 7652 0194 6D90      		ld r6,X+
 7653 0196 7C90      		ld r7,X
 7654 0198 1197      		sbiw r26,1
 7655               	.LVL325:
 7656               	.LBB68:
 7657               	.LBB69:
 7658               	.LSM465:
 7659 019a 6114      		cp r6,__zero_reg__
 7660 019c 7104      		cpc r7,__zero_reg__
 7661 019e 01F4      		brne .+2
 7662 01a0 00C0      		rjmp .L596
 7663 01a2 B2E0      		ldi r27,lo8(2)
 7664 01a4 8B16      		cp r8,r27
 7665 01a6 9104      		cpc r9,__zero_reg__
 7666 01a8 A104      		cpc r10,__zero_reg__
 7667 01aa B104      		cpc r11,__zero_reg__
 7668 01ac 00F4      		brsh .+2
 7669 01ae 00C0      		rjmp .L596
 7670               	.LSM466:
 7671 01b0 C301      		movw r24,r6
 7672 01b2 B501      		movw r22,r10
 7673 01b4 A401      		movw r20,r8
 7674 01b6 0E94 0000 		call fat_get_next_cluster
 7675               	.LVL326:
 7676 01ba 6F83      		std Y+7,r22
 7677 01bc 7887      		std Y+8,r23
 7678 01be 8987      		std Y+9,r24
 7679 01c0 9A87      		std Y+10,r25
 7680               	.LVL327:
 7681               	.LSM467:
 7682 01c2 F301      		movw r30,r6
 7683 01c4 2080      		ld r2,Z
 7684 01c6 3180      		ldd r3,Z+1
 7685 01c8 D101      		movw r26,r2
 7686 01ca 1896      		adiw r26,8
 7687 01cc 8C91      		ld r24,X
 7688 01ce 1897      		sbiw r26,8
 7689 01d0 8B30      		cpi r24,lo8(11)
 7690 01d2 01F0      		breq .+2
 7691 01d4 00C0      		rjmp .L604
 7692               	.LBB70:
 7693               	.LSM468:
 7694 01d6 8FEF      		ldi r24,lo8(268435455)
 7695 01d8 9FEF      		ldi r25,hi8(268435455)
 7696 01da AFEF      		ldi r26,hlo8(268435455)
 7697 01dc BFE0      		ldi r27,hhi8(268435455)
 7698 01de 8B83      		std Y+3,r24
 7699 01e0 9C83      		std Y+4,r25
 7700 01e2 AD83      		std Y+5,r26
 7701 01e4 BE83      		std Y+6,r27
 7702               	.LVL328:
 7703               	.LSM469:
 7704 01e6 A2E0      		ldi r26,2
 7705 01e8 880C      	1:	lsl r8
 7706 01ea 991C      		rol r9
 7707 01ec AA1C      		rol r10
 7708 01ee BB1C      		rol r11
 7709 01f0 AA95      		dec r26
 7710 01f2 01F4      		brne 1b
 7711               	.LVL329:
 7712 01f4 9501      		movw r18,r10
 7713 01f6 8401      		movw r16,r8
 7714 01f8 40E0      		ldi r20,lo8(0)
 7715 01fa 50E0      		ldi r21,hi8(0)
 7716 01fc BA01      		movw r22,r20
 7717 01fe B284      		ldd r11,Z+10
 7718 0200 F385      		ldd r31,Z+11
 7719 0202 D301      		movw r26,r6
 7720 0204 1C96      		adiw r26,12
 7721 0206 8C90      		ld r8,X
 7722 0208 1C97      		sbiw r26,12
 7723 020a 1D96      		adiw r26,13
 7724 020c 4C90      		ld r4,X
 7725 020e 1D97      		sbiw r26,13
 7726               	.LVL330:
 7727 0210 1E96      		adiw r26,14
 7728 0212 AC90      		ld r10,X
 7729 0214 1E97      		sbiw r26,14
 7730 0216 1F96      		adiw r26,15
 7731 0218 9C91      		ld r25,X
 7732 021a 1F97      		sbiw r26,15
 7733 021c 5096      		adiw r26,16
 7734 021e EC91      		ld r30,X
 7735 0220 5097      		sbiw r26,16
 7736 0222 5196      		adiw r26,17
 7737 0224 9C90      		ld r9,X
 7738 0226 5197      		sbiw r26,17
 7739 0228 B00E      		add r11,r16
 7740 022a EE24      		clr r14
 7741 022c E394      		inc r14
 7742 022e B016      		cp r11,r16
 7743 0230 00F0      		brlo .L605
 7744 0232 EE24      		clr r14
 7745               	.L605:
 7746 0234 F10F      		add r31,r17
 7747 0236 81E0      		ldi r24,lo8(1)
 7748 0238 F117      		cp r31,r17
 7749 023a 00F0      		brlo .L606
 7750 023c 80E0      		ldi r24,lo8(0)
 7751               	.L606:
 7752 023e EF0E      		add r14,r31
 7753 0240 FF24      		clr r15
 7754 0242 F394      		inc r15
 7755 0244 EF16      		cp r14,r31
 7756 0246 00F0      		brlo .L607
 7757 0248 FF24      		clr r15
 7758               	.L607:
 7759 024a 8F29      		or r24,r15
 7760 024c 820E      		add r8,r18
 7761 024e F1E0      		ldi r31,lo8(1)
 7762 0250 8216      		cp r8,r18
 7763 0252 00F0      		brlo .L608
 7764 0254 F0E0      		ldi r31,lo8(0)
 7765               	.L608:
 7766 0256 F82E      		mov r15,r24
 7767 0258 F80C      		add r15,r8
 7768 025a 81E0      		ldi r24,lo8(1)
 7769 025c F814      		cp r15,r8
 7770 025e 00F0      		brlo .L609
 7771 0260 80E0      		ldi r24,lo8(0)
 7772               	.L609:
 7773 0262 F82B      		or r31,r24
 7774 0264 B42D      		mov r27,r4
 7775 0266 B30F      		add r27,r19
 7776 0268 81E0      		ldi r24,lo8(1)
 7777 026a B317      		cp r27,r19
 7778 026c 00F0      		brlo .L610
 7779 026e 80E0      		ldi r24,lo8(0)
 7780               	.L610:
 7781 0270 4F2E      		mov r4,r31
 7782 0272 4B0E      		add r4,r27
 7783 0274 F1E0      		ldi r31,lo8(1)
 7784 0276 4B16      		cp r4,r27
 7785 0278 00F0      		brlo .L611
 7786 027a F0E0      		ldi r31,lo8(0)
 7787               	.L611:
 7788 027c 8F2B      		or r24,r31
 7789 027e B1E0      		ldi r27,lo8(1)
 7790 0280 A416      		cp r10,r20
 7791 0282 00F0      		brlo .L612
 7792 0284 B0E0      		ldi r27,lo8(0)
 7793               	.L612:
 7794 0286 882E      		mov r8,r24
 7795 0288 8A0C      		add r8,r10
 7796 028a 81E0      		ldi r24,lo8(1)
 7797 028c 8A14      		cp r8,r10
 7798 028e 00F0      		brlo .L613
 7799 0290 80E0      		ldi r24,lo8(0)
 7800               	.L613:
 7801 0292 B82B      		or r27,r24
 7802 0294 81E0      		ldi r24,lo8(1)
 7803 0296 9517      		cp r25,r21
 7804 0298 00F0      		brlo .L614
 7805 029a 80E0      		ldi r24,lo8(0)
 7806               	.L614:
 7807 029c B90F      		add r27,r25
 7808 029e F1E0      		ldi r31,lo8(1)
 7809 02a0 B917      		cp r27,r25
 7810 02a2 00F0      		brlo .L615
 7811 02a4 F0E0      		ldi r31,lo8(0)
 7812               	.L615:
 7813 02a6 8F2B      		or r24,r31
 7814 02a8 91E0      		ldi r25,lo8(1)
 7815 02aa E617      		cp r30,r22
 7816 02ac 00F0      		brlo .L616
 7817 02ae 90E0      		ldi r25,lo8(0)
 7818               	.L616:
 7819 02b0 8E0F      		add r24,r30
 7820 02b2 21E0      		ldi r18,lo8(1)
 7821 02b4 8E17      		cp r24,r30
 7822 02b6 00F0      		brlo .L617
 7823 02b8 20E0      		ldi r18,lo8(0)
 7824               	.L617:
 7825 02ba 922B      		or r25,r18
 7826 02bc F101      		movw r30,r2
 7827 02be 2480      		ldd r2,Z+4
 7828 02c0 3580      		ldd r3,Z+5
 7829 02c2 2B2D      		mov r18,r11
 7830 02c4 3E2D      		mov r19,r14
 7831 02c6 4F2D      		mov r20,r15
 7832 02c8 542D      		mov r21,r4
 7833 02ca 682D      		mov r22,r8
 7834               	.LVL331:
 7835 02cc 7B2F      		mov r23,r27
 7836 02ce 990D      		add r25,r9
 7837 02d0 8E01      		movw r16,r28
 7838 02d2 0D5F      		subi r16,lo8(-(3))
 7839 02d4 1F4F      		sbci r17,hi8(-(3))
 7840 02d6 E4E0      		ldi r30,lo8(4)
 7841 02d8 EE2E      		mov r14,r30
 7842 02da F12C      		mov r15,__zero_reg__
 7843 02dc 00C0      		rjmp .L642
 7844               	.LVL332:
 7845               	.L604:
 7846               	.LBE70:
 7847               	.LBB71:
 7848               	.LSM470:
 7849 02de 8FEF      		ldi r24,lo8(-1)
 7850 02e0 9FEF      		ldi r25,hi8(-1)
 7851 02e2 9A83      		std Y+2,r25
 7852 02e4 8983      		std Y+1,r24
 7853               	.LVL333:
 7854               	.LSM471:
 7855 02e6 880C      		lsl r8
 7856 02e8 991C      		rol r9
 7857 02ea AA1C      		rol r10
 7858 02ec BB1C      		rol r11
 7859               	.LVL334:
 7860 02ee 9501      		movw r18,r10
 7861 02f0 8401      		movw r16,r8
 7862 02f2 40E0      		ldi r20,lo8(0)
 7863 02f4 50E0      		ldi r21,hi8(0)
 7864 02f6 BA01      		movw r22,r20
 7865 02f8 D301      		movw r26,r6
 7866 02fa 1A96      		adiw r26,10
 7867 02fc BC90      		ld r11,X
 7868 02fe 1A97      		sbiw r26,10
 7869 0300 1B96      		adiw r26,11
 7870 0302 FC91      		ld r31,X
 7871 0304 1B97      		sbiw r26,11
 7872 0306 1C96      		adiw r26,12
 7873 0308 8C90      		ld r8,X
 7874 030a 1C97      		sbiw r26,12
 7875 030c 1D96      		adiw r26,13
 7876 030e 9C90      		ld r9,X
 7877 0310 1D97      		sbiw r26,13
 7878 0312 1E96      		adiw r26,14
 7879 0314 AC90      		ld r10,X
 7880 0316 1E97      		sbiw r26,14
 7881 0318 1F96      		adiw r26,15
 7882 031a 9C91      		ld r25,X
 7883 031c 1F97      		sbiw r26,15
 7884 031e 5096      		adiw r26,16
 7885 0320 EC91      		ld r30,X
 7886 0322 5097      		sbiw r26,16
 7887 0324 5196      		adiw r26,17
 7888 0326 5C90      		ld r5,X
 7889 0328 5197      		sbiw r26,17
 7890 032a B00E      		add r11,r16
 7891 032c EE24      		clr r14
 7892 032e E394      		inc r14
 7893 0330 B016      		cp r11,r16
 7894 0332 00F0      		brlo .L619
 7895 0334 EE24      		clr r14
 7896               	.L619:
 7897 0336 F10F      		add r31,r17
 7898 0338 81E0      		ldi r24,lo8(1)
 7899 033a F117      		cp r31,r17
 7900 033c 00F0      		brlo .L620
 7901 033e 80E0      		ldi r24,lo8(0)
 7902               	.L620:
 7903 0340 EF0E      		add r14,r31
 7904 0342 FF24      		clr r15
 7905 0344 F394      		inc r15
 7906 0346 EF16      		cp r14,r31
 7907 0348 00F0      		brlo .L621
 7908 034a FF24      		clr r15
 7909               	.L621:
 7910 034c 8F29      		or r24,r15
 7911 034e 820E      		add r8,r18
 7912 0350 F1E0      		ldi r31,lo8(1)
 7913 0352 8216      		cp r8,r18
 7914 0354 00F0      		brlo .L622
 7915 0356 F0E0      		ldi r31,lo8(0)
 7916               	.L622:
 7917 0358 F82E      		mov r15,r24
 7918 035a F80C      		add r15,r8
 7919 035c 81E0      		ldi r24,lo8(1)
 7920 035e F814      		cp r15,r8
 7921 0360 00F0      		brlo .L623
 7922 0362 80E0      		ldi r24,lo8(0)
 7923               	.L623:
 7924 0364 F82B      		or r31,r24
 7925 0366 B92D      		mov r27,r9
 7926 0368 B30F      		add r27,r19
 7927 036a 81E0      		ldi r24,lo8(1)
 7928 036c B317      		cp r27,r19
 7929 036e 00F0      		brlo .L624
 7930 0370 80E0      		ldi r24,lo8(0)
 7931               	.L624:
 7932 0372 4F2E      		mov r4,r31
 7933               	.LVL335:
 7934 0374 4B0E      		add r4,r27
 7935 0376 F1E0      		ldi r31,lo8(1)
 7936 0378 4B16      		cp r4,r27
 7937 037a 00F0      		brlo .L625
 7938 037c F0E0      		ldi r31,lo8(0)
 7939               	.L625:
 7940 037e 8F2B      		or r24,r31
 7941 0380 B1E0      		ldi r27,lo8(1)
 7942 0382 A416      		cp r10,r20
 7943 0384 00F0      		brlo .L626
 7944 0386 B0E0      		ldi r27,lo8(0)
 7945               	.L626:
 7946 0388 882E      		mov r8,r24
 7947 038a 8A0C      		add r8,r10
 7948 038c 81E0      		ldi r24,lo8(1)
 7949 038e 8A14      		cp r8,r10
 7950 0390 00F0      		brlo .L627
 7951 0392 80E0      		ldi r24,lo8(0)
 7952               	.L627:
 7953 0394 B82B      		or r27,r24
 7954 0396 81E0      		ldi r24,lo8(1)
 7955 0398 9517      		cp r25,r21
 7956 039a 00F0      		brlo .L628
 7957 039c 80E0      		ldi r24,lo8(0)
 7958               	.L628:
 7959 039e B90F      		add r27,r25
 7960 03a0 F1E0      		ldi r31,lo8(1)
 7961 03a2 B917      		cp r27,r25
 7962 03a4 00F0      		brlo .L629
 7963 03a6 F0E0      		ldi r31,lo8(0)
 7964               	.L629:
 7965 03a8 8F2B      		or r24,r31
 7966 03aa 91E0      		ldi r25,lo8(1)
 7967 03ac E617      		cp r30,r22
 7968 03ae 00F0      		brlo .L630
 7969 03b0 90E0      		ldi r25,lo8(0)
 7970               	.L630:
 7971 03b2 8E0F      		add r24,r30
 7972 03b4 21E0      		ldi r18,lo8(1)
 7973 03b6 8E17      		cp r24,r30
 7974 03b8 00F0      		brlo .L631
 7975 03ba 20E0      		ldi r18,lo8(0)
 7976               	.L631:
 7977 03bc 922B      		or r25,r18
 7978 03be F101      		movw r30,r2
 7979 03c0 2480      		ldd r2,Z+4
 7980 03c2 3580      		ldd r3,Z+5
 7981 03c4 2B2D      		mov r18,r11
 7982 03c6 3E2D      		mov r19,r14
 7983 03c8 4F2D      		mov r20,r15
 7984 03ca 542D      		mov r21,r4
 7985 03cc 682D      		mov r22,r8
 7986 03ce 7B2F      		mov r23,r27
 7987 03d0 950D      		add r25,r5
 7988 03d2 8E01      		movw r16,r28
 7989 03d4 0F5F      		subi r16,lo8(-(1))
 7990 03d6 1F4F      		sbci r17,hi8(-(1))
 7991 03d8 B2E0      		ldi r27,lo8(2)
 7992 03da EB2E      		mov r14,r27
 7993 03dc F12C      		mov r15,__zero_reg__
 7994               	.LVL336:
 7995               	.L642:
 7996 03de F101      		movw r30,r2
 7997 03e0 0995      		icall
 7998 03e2 8823      		tst r24
 7999 03e4 01F0      		breq .L596
 8000               	.LBE71:
 8001               	.LSM472:
 8002 03e6 EF80      		ldd r14,Y+7
 8003 03e8 F884      		ldd r15,Y+8
 8004 03ea 0985      		ldd r16,Y+9
 8005 03ec 1A85      		ldd r17,Y+10
 8006 03ee E114      		cp r14,__zero_reg__
 8007 03f0 F104      		cpc r15,__zero_reg__
 8008 03f2 0105      		cpc r16,__zero_reg__
 8009 03f4 1105      		cpc r17,__zero_reg__
 8010 03f6 01F0      		breq .L596
 8011               	.LSM473:
 8012 03f8 C301      		movw r24,r6
 8013 03fa B801      		movw r22,r16
 8014 03fc A701      		movw r20,r14
 8015               	.LVL337:
 8016               	.L643:
 8017 03fe 0E94 0000 		call fat_free_clusters
 8018               	.L596:
 8019               	.LBE69:
 8020               	.LBE68:
 8021               	.LSM474:
 8022 0402 EB84      		ldd r14,Y+11
 8023 0404 FC84      		ldd r15,Y+12
 8024 0406 0D85      		ldd r16,Y+13
 8025 0408 1E85      		ldd r17,Y+14
 8026 040a A801      		movw r20,r16
 8027 040c 9701      		movw r18,r14
 8028 040e 60E0      		ldi r22,lo8(0)
 8029 0410 70E0      		ldi r23,hi8(0)
 8030 0412 CB01      		movw r24,r22
 8031 0414 D601      		movw r26,r12
 8032 0416 DA96      		adiw r26,58
 8033 0418 EC91      		ld r30,X
 8034 041a DA97      		sbiw r26,58
 8035 041c 9E17      		cp r25,r30
 8036 041e 00F0      		brlo .L638
 8037 0420 E917      		cp r30,r25
 8038 0422 01F0      		breq .+2
 8039 0424 00C0      		rjmp .L637
 8040 0426 D996      		adiw r26,57
 8041 0428 EC91      		ld r30,X
 8042 042a D997      		sbiw r26,57
 8043 042c 8E17      		cp r24,r30
 8044 042e 00F0      		brlo .L638
 8045 0430 E817      		cp r30,r24
 8046 0432 01F4      		brne .L637
 8047 0434 D896      		adiw r26,56
 8048 0436 EC91      		ld r30,X
 8049 0438 D897      		sbiw r26,56
 8050 043a 7E17      		cp r23,r30
 8051 043c 00F0      		brlo .L638
 8052 043e E717      		cp r30,r23
 8053 0440 01F4      		brne .L637
 8054 0442 D796      		adiw r26,55
 8055 0444 EC91      		ld r30,X
 8056 0446 D797      		sbiw r26,55
 8057 0448 6E17      		cp r22,r30
 8058 044a 00F0      		brlo .L638
 8059 044c E617      		cp r30,r22
 8060 044e 01F4      		brne .L637
 8061 0450 D696      		adiw r26,54
 8062 0452 EC91      		ld r30,X
 8063 0454 D697      		sbiw r26,54
 8064 0456 5E17      		cp r21,r30
 8065 0458 00F0      		brlo .L638
 8066 045a E517      		cp r30,r21
 8067 045c 01F4      		brne .L637
 8068 045e D596      		adiw r26,53
 8069 0460 EC91      		ld r30,X
 8070 0462 D597      		sbiw r26,53
 8071 0464 4E17      		cp r20,r30
 8072 0466 00F0      		brlo .L638
 8073 0468 E417      		cp r30,r20
 8074 046a 01F4      		brne .L637
 8075 046c D496      		adiw r26,52
 8076 046e EC91      		ld r30,X
 8077 0470 D497      		sbiw r26,52
 8078 0472 3E17      		cp r19,r30
 8079 0474 00F0      		brlo .L638
 8080 0476 E317      		cp r30,r19
 8081 0478 01F4      		brne .L637
 8082 047a D396      		adiw r26,51
 8083 047c EC91      		ld r30,X
 8084 047e D397      		sbiw r26,51
 8085 0480 EE16      		cp r14,r30
 8086 0482 00F4      		brsh .L637
 8087               	.L638:
 8088               	.LSM475:
 8089 0484 F601      		movw r30,r12
 8090 0486 23AB      		std Z+51,r18
 8091 0488 34AB      		std Z+52,r19
 8092 048a 45AB      		std Z+53,r20
 8093 048c 56AB      		std Z+54,r21
 8094 048e 17AA      		std Z+55,__zero_reg__
 8095 0490 10AE      		std Z+56,__zero_reg__
 8096 0492 11AE      		std Z+57,__zero_reg__
 8097 0494 12AE      		std Z+58,__zero_reg__
 8098               	.LSM476:
 8099 0496 D601      		movw r26,r12
 8100 0498 DB96      		adiw r26,59
 8101 049a 1D92      		st X+,__zero_reg__
 8102 049c 1D92      		st X+,__zero_reg__
 8103 049e 1D92      		st X+,__zero_reg__
 8104 04a0 1C92      		st X,__zero_reg__
 8105 04a2 DE97      		sbiw r26,59+3
 8106 04a4 00C0      		rjmp .L637
 8107               	.LVL338:
 8108               	.L636:
 8109               	.LSM477:
 8110 04a6 80E0      		ldi r24,lo8(0)
 8111 04a8 00C0      		rjmp .L593
 8112               	.LVL339:
 8113               	.L637:
 8114               	.LSM478:
 8115 04aa 81E0      		ldi r24,lo8(1)
 8116               	.L593:
 8117               	/* epilogue start */
 8118               	.LSM479:
 8119 04ac 2E96      		adiw r28,14
 8120               	.LVL340:
 8121 04ae 0FB6      		in __tmp_reg__,__SREG__
 8122 04b0 F894      		cli
 8123 04b2 DEBF      		out __SP_H__,r29
 8124 04b4 0FBE      		out __SREG__,__tmp_reg__
 8125 04b6 CDBF      		out __SP_L__,r28
 8126               	.LVL341:
 8127 04b8 CF91      		pop r28
 8128 04ba DF91      		pop r29
 8129               	.LVL342:
 8130 04bc 1F91      		pop r17
 8131 04be 0F91      		pop r16
 8132 04c0 FF90      		pop r15
 8133 04c2 EF90      		pop r14
 8134 04c4 DF90      		pop r13
 8135 04c6 CF90      		pop r12
 8136               	.LVL343:
 8137 04c8 BF90      		pop r11
 8138 04ca AF90      		pop r10
 8139 04cc 9F90      		pop r9
 8140 04ce 8F90      		pop r8
 8141 04d0 7F90      		pop r7
 8142 04d2 6F90      		pop r6
 8143 04d4 5F90      		pop r5
 8144 04d6 4F90      		pop r4
 8145 04d8 3F90      		pop r3
 8146 04da 2F90      		pop r2
 8147 04dc 0895      		ret
 8148               	.LVL344:
 8149               	.L644:
 8150 04de EF82      		std Y+7,r14
 8151 04e0 F886      		std Y+8,r15
 8152 04e2 0987      		std Y+9,r16
 8153 04e4 1A87      		std Y+10,r17
 8154               	.LSM480:
 8155 04e6 8114      		cp r8,__zero_reg__
 8156 04e8 9104      		cpc r9,__zero_reg__
 8157 04ea A104      		cpc r10,__zero_reg__
 8158 04ec B104      		cpc r11,__zero_reg__
 8159 04ee 01F4      		brne .+2
 8160 04f0 00C0      		rjmp .L633
 8161 04f2 00C0      		rjmp .L601
 8162               	.LFE16:
 8164               		.section	.text.fat_seek_file,"ax",@progbits
 8165               	.global	fat_seek_file
 8167               	fat_seek_file:
 8168               	.LFB15:
 8169               	.LSM481:
 8170               	.LVL345:
 8171 0000 CF92      		push r12
 8172 0002 DF92      		push r13
 8173 0004 EF92      		push r14
 8174 0006 FF92      		push r15
 8175 0008 0F93      		push r16
 8176 000a 1F93      		push r17
 8177 000c CF93      		push r28
 8178 000e DF93      		push r29
 8179               	/* prologue: function */
 8180               	/* frame size = 0 */
 8181               	/* stack size = 8 */
 8182               	.L__stack_usage = 8
 8183 0010 EC01      		movw r28,r24
 8184 0012 6B01      		movw r12,r22
 8185               	.LSM482:
 8186 0014 0097      		sbiw r24,0
 8187 0016 01F4      		brne .+2
 8188 0018 00C0      		rjmp .L655
 8189               	.LVL346:
 8190               	.LSM483:
 8191 001a 6115      		cp r22,__zero_reg__
 8192 001c 7105      		cpc r23,__zero_reg__
 8193 001e 01F4      		brne .+2
 8194 0020 00C0      		rjmp .L655
 8195               	.LSM484:
 8196 0022 6BA9      		ldd r22,Y+51
 8197 0024 5CA9      		ldd r21,Y+52
 8198 0026 3DA9      		ldd r19,Y+53
 8199 0028 2EA9      		ldd r18,Y+54
 8200               	.LSM485:
 8201 002a 4130      		cpi r20,lo8(1)
 8202 002c 01F0      		breq .L648
 8203 002e 4130      		cpi r20,lo8(1)
 8204 0030 00F0      		brlo .L647
 8205 0032 4230      		cpi r20,lo8(2)
 8206 0034 01F0      		breq .+2
 8207 0036 00C0      		rjmp .L655
 8208 0038 00C0      		rjmp .L658
 8209               	.L647:
 8210               	.LSM486:
 8211 003a F601      		movw r30,r12
 8212 003c E080      		ld r14,Z
 8213 003e F180      		ldd r15,Z+1
 8214 0040 0281      		ldd r16,Z+2
 8215 0042 1381      		ldd r17,Z+3
 8216               	.LVL347:
 8217               	.LSM487:
 8218 0044 00C0      		rjmp .L650
 8219               	.LVL348:
 8220               	.L648:
 8221               	.LSM488:
 8222 0046 862F      		mov r24,r22
 8223               	.LVL349:
 8224 0048 952F      		mov r25,r21
 8225 004a A32F      		mov r26,r19
 8226 004c B22F      		mov r27,r18
 8227               	.LSM489:
 8228 004e F601      		movw r30,r12
 8229 0050 E080      		ld r14,Z
 8230 0052 F180      		ldd r15,Z+1
 8231 0054 0281      		ldd r16,Z+2
 8232 0056 1381      		ldd r17,Z+3
 8233 0058 00C0      		rjmp .L657
 8234               	.L658:
 8235               	.LSM490:
 8236 005a F601      		movw r30,r12
 8237 005c E080      		ld r14,Z
 8238 005e F180      		ldd r15,Z+1
 8239 0060 0281      		ldd r16,Z+2
 8240 0062 1381      		ldd r17,Z+3
 8241 0064 8FA1      		ldd r24,Y+39
 8242 0066 98A5      		ldd r25,Y+40
 8243 0068 A9A5      		ldd r26,Y+41
 8244 006a BAA5      		ldd r27,Y+42
 8245               	.L657:
 8246 006c E80E      		add r14,r24
 8247 006e F91E      		adc r15,r25
 8248 0070 0A1F      		adc r16,r26
 8249 0072 1B1F      		adc r17,r27
 8250               	.LVL350:
 8251               	.L650:
 8252               	.LSM491:
 8253 0074 8FA1      		ldd r24,Y+39
 8254 0076 98A5      		ldd r25,Y+40
 8255 0078 A9A5      		ldd r26,Y+41
 8256 007a BAA5      		ldd r27,Y+42
 8257 007c 8E15      		cp r24,r14
 8258 007e 9F05      		cpc r25,r15
 8259 0080 A007      		cpc r26,r16
 8260 0082 B107      		cpc r27,r17
 8261 0084 00F4      		brsh .L651
 8262               	.LSM492:
 8263 0086 CE01      		movw r24,r28
 8264 0088 B801      		movw r22,r16
 8265 008a A701      		movw r20,r14
 8266               	.LVL351:
 8267 008c 0E94 0000 		call fat_resize_file
 8268 0090 8823      		tst r24
 8269 0092 01F0      		breq .L655
 8270               	.L651:
 8271               	.LSM493:
 8272 0094 A801      		movw r20,r16
 8273 0096 9701      		movw r18,r14
 8274 0098 EBAA      		std Y+51,r14
 8275 009a 3CAB      		std Y+52,r19
 8276 009c 4DAB      		std Y+53,r20
 8277 009e 5EAB      		std Y+54,r21
 8278 00a0 1FAA      		std Y+55,__zero_reg__
 8279 00a2 18AE      		std Y+56,__zero_reg__
 8280 00a4 19AE      		std Y+57,__zero_reg__
 8281 00a6 1AAE      		std Y+58,__zero_reg__
 8282               	.LSM494:
 8283 00a8 1BAE      		std Y+59,__zero_reg__
 8284 00aa 1CAE      		std Y+60,__zero_reg__
 8285 00ac 1DAE      		std Y+61,__zero_reg__
 8286 00ae 1EAE      		std Y+62,__zero_reg__
 8287               	.LSM495:
 8288 00b0 F601      		movw r30,r12
 8289 00b2 E082      		st Z,r14
 8290 00b4 F182      		std Z+1,r15
 8291 00b6 0283      		std Z+2,r16
 8292 00b8 1383      		std Z+3,r17
 8293               	.LSM496:
 8294 00ba 81E0      		ldi r24,lo8(1)
 8295 00bc 00C0      		rjmp .L646
 8296               	.LVL352:
 8297               	.L655:
 8298               	.LSM497:
 8299 00be 80E0      		ldi r24,lo8(0)
 8300               	.L646:
 8301               	/* epilogue start */
 8302               	.LSM498:
 8303 00c0 DF91      		pop r29
 8304 00c2 CF91      		pop r28
 8305               	.LVL353:
 8306 00c4 1F91      		pop r17
 8307 00c6 0F91      		pop r16
 8308 00c8 FF90      		pop r15
 8309 00ca EF90      		pop r14
 8310 00cc DF90      		pop r13
 8311 00ce CF90      		pop r12
 8312               	.LVL354:
 8313 00d0 0895      		ret
 8314               	.LFE15:
 8316               		.section	.text.fat_open_dir,"ax",@progbits
 8317               	.global	fat_open_dir
 8319               	fat_open_dir:
 8320               	.LFB17:
 8321               	.LSM499:
 8322               	.LVL355:
 8323 0000 CF93      		push r28
 8324 0002 DF93      		push r29
 8325               	/* prologue: function */
 8326               	/* frame size = 0 */
 8327               	/* stack size = 2 */
 8328               	.L__stack_usage = 2
 8329 0004 DB01      		movw r26,r22
 8330               	.LSM500:
 8331 0006 0097      		sbiw r24,0
 8332 0008 01F0      		breq .L667
 8333               	.LSM501:
 8334 000a 1097      		sbiw r26,0
 8335 000c 01F0      		breq .L667
 8336 000e 9096      		adiw r26,32
 8337 0010 2C91      		ld r18,X
 8338 0012 9097      		sbiw r26,32
 8339 0014 24FF      		sbrs r18,4
 8340 0016 00C0      		rjmp .L667
 8341               	.LVL356:
 8342               	.LSM502:
 8343 0018 2091 0000 		lds r18,fat_dir_handles
 8344 001c 3091 0000 		lds r19,fat_dir_handles+1
 8345 0020 2115      		cp r18,__zero_reg__
 8346 0022 3105      		cpc r19,__zero_reg__
 8347 0024 01F0      		breq .L666
 8348               	.LVL357:
 8349               	.LSM503:
 8350 0026 2091 0000 		lds r18,fat_dir_handles+57
 8351 002a 3091 0000 		lds r19,fat_dir_handles+57+1
 8352 002e 2115      		cp r18,__zero_reg__
 8353 0030 3105      		cpc r19,__zero_reg__
 8354 0032 01F4      		brne .L667
 8355               	.LSM504:
 8356 0034 E0E0      		ldi r30,lo8(fat_dir_handles+57)
 8357 0036 F0E0      		ldi r31,hi8(fat_dir_handles+57)
 8358 0038 00C0      		rjmp .L661
 8359               	.LVL358:
 8360               	.L666:
 8361               	.LSM505:
 8362 003a E0E0      		ldi r30,lo8(fat_dir_handles)
 8363 003c F0E0      		ldi r31,hi8(fat_dir_handles)
 8364               	.LVL359:
 8365               	.L661:
 8366               	.LSM506:
 8367 003e 9F01      		movw r18,r30
 8368 0040 2E5F      		subi r18,lo8(-(2))
 8369 0042 3F4F      		sbci r19,hi8(-(2))
 8370 0044 BD01      		movw r22,r26
 8371               	.LVL360:
 8372 0046 41E3      		ldi r20,lo8(49)
 8373               	.L662:
 8374 0048 EB01      		movw r28,r22
 8375 004a 0990      		ld r0,Y+
 8376 004c BE01      		movw r22,r28
 8377 004e E901      		movw r28,r18
 8378 0050 0992      		st Y+,r0
 8379 0052 9E01      		movw r18,r28
 8380 0054 4150      		subi r20,lo8(-(-1))
 8381 0056 01F4      		brne .L662
 8382               	.LSM507:
 8383 0058 9183      		std Z+1,r25
 8384 005a 8083      		st Z,r24
 8385               	.LSM508:
 8386 005c 9196      		adiw r26,33
 8387 005e 2D91      		ld r18,X+
 8388 0060 3D91      		ld r19,X+
 8389 0062 4D91      		ld r20,X+
 8390 0064 5C91      		ld r21,X
 8391 0066 9497      		sbiw r26,33+3
 8392 0068 23AB      		std Z+51,r18
 8393 006a 34AB      		std Z+52,r19
 8394 006c 45AB      		std Z+53,r20
 8395 006e 56AB      		std Z+54,r21
 8396               	.LSM509:
 8397 0070 10AE      		std Z+56,__zero_reg__
 8398 0072 17AA      		std Z+55,__zero_reg__
 8399               	.LSM510:
 8400 0074 00C0      		rjmp .L660
 8401               	.L667:
 8402               	.LSM511:
 8403 0076 E0E0      		ldi r30,lo8(0)
 8404 0078 F0E0      		ldi r31,hi8(0)
 8405               	.L660:
 8406               	.LSM512:
 8407 007a CF01      		movw r24,r30
 8408               	.LVL361:
 8409               	/* epilogue start */
 8410 007c DF91      		pop r29
 8411 007e CF91      		pop r28
 8412 0080 0895      		ret
 8413               	.LFE17:
 8415               		.section	.text.fat_close_dir,"ax",@progbits
 8416               	.global	fat_close_dir
 8418               	fat_close_dir:
 8419               	.LFB18:
 8420               	.LSM513:
 8421               	.LVL362:
 8422               	/* prologue: function */
 8423               	/* frame size = 0 */
 8424               	/* stack size = 0 */
 8425               	.L__stack_usage = 0
 8426               	.LSM514:
 8427 0000 0097      		sbiw r24,0
 8428 0002 01F0      		breq .L669
 8429               	.LSM515:
 8430 0004 FC01      		movw r30,r24
 8431 0006 1182      		std Z+1,__zero_reg__
 8432 0008 1082      		st Z,__zero_reg__
 8433               	.L669:
 8434 000a 0895      		ret
 8435               	.LFE18:
 8437               		.section	.text.fat_read_dir,"ax",@progbits
 8438               	.global	fat_read_dir
 8440               	fat_read_dir:
 8441               	.LFB19:
 8442               	.LSM516:
 8443               	.LVL363:
 8444 0000 2F92      		push r2
 8445 0002 3F92      		push r3
 8446 0004 4F92      		push r4
 8447 0006 5F92      		push r5
 8448 0008 6F92      		push r6
 8449 000a 7F92      		push r7
 8450 000c 8F92      		push r8
 8451 000e 9F92      		push r9
 8452 0010 AF92      		push r10
 8453 0012 BF92      		push r11
 8454 0014 CF92      		push r12
 8455 0016 DF92      		push r13
 8456 0018 EF92      		push r14
 8457 001a FF92      		push r15
 8458 001c 0F93      		push r16
 8459 001e 1F93      		push r17
 8460 0020 DF93      		push r29
 8461 0022 CF93      		push r28
 8462 0024 CDB7      		in r28,__SP_L__
 8463 0026 DEB7      		in r29,__SP_H__
 8464 0028 E197      		sbiw r28,49
 8465 002a 0FB6      		in __tmp_reg__,__SREG__
 8466 002c F894      		cli
 8467 002e DEBF      		out __SP_H__,r29
 8468 0030 0FBE      		out __SREG__,__tmp_reg__
 8469 0032 CDBF      		out __SP_L__,r28
 8470               	/* prologue: function */
 8471               	/* frame size = 49 */
 8472               	/* stack size = 67 */
 8473               	.L__stack_usage = 67
 8474 0034 99A7      		std Y+41,r25
 8475 0036 88A7      		std Y+40,r24
 8476 0038 7DA7      		std Y+45,r23
 8477 003a 6CA7      		std Y+44,r22
 8478               	.LSM517:
 8479 003c 0097      		sbiw r24,0
 8480 003e 01F4      		brne .+2
 8481 0040 00C0      		rjmp .L684
 8482               	.LSM518:
 8483 0042 6115      		cp r22,__zero_reg__
 8484 0044 7105      		cpc r23,__zero_reg__
 8485 0046 01F4      		brne .+2
 8486 0048 00C0      		rjmp .L684
 8487               	.LSM519:
 8488 004a DC01      		movw r26,r24
 8489 004c 2D90      		ld r2,X+
 8490 004e 3C90      		ld r3,X
 8491 0050 1197      		sbiw r26,1
 8492               	.LVL364:
 8493               	.LSM520:
 8494 0052 F101      		movw r30,r2
 8495 0054 008C      		ldd __tmp_reg__,Z+24
 8496 0056 F18D      		ldd r31,Z+25
 8497 0058 E02D      		mov r30,__tmp_reg__
 8498 005a FBA7      		std Y+43,r31
 8499 005c EAA7      		std Y+42,r30
 8500               	.LVL365:
 8501               	.LSM521:
 8502 005e D396      		adiw r26,51
 8503 0060 4D90      		ld r4,X+
 8504 0062 5D90      		ld r5,X+
 8505 0064 6D90      		ld r6,X+
 8506 0066 7C90      		ld r7,X
 8507 0068 D697      		sbiw r26,51+3
 8508               	.LVL366:
 8509               	.LSM522:
 8510 006a D796      		adiw r26,55
 8511 006c 2D91      		ld r18,X+
 8512 006e 3C91      		ld r19,X
 8513 0070 D897      		sbiw r26,55+1
 8514 0072 3FA3      		std Y+39,r19
 8515 0074 2EA3      		std Y+38,r18
 8516               	.LVL367:
 8517               	.LSM523:
 8518 0076 ECA5      		ldd r30,Y+44
 8519 0078 FDA5      		ldd r31,Y+45
 8520 007a 81E3      		ldi r24,lo8(49)
 8521               	.LVL368:
 8522 007c DF01      		movw r26,r30
 8523               	.LVL369:
 8524 007e 1D92      		st X+,__zero_reg__
 8525 0080 8A95      	        dec r24
 8526 0082 01F4      		brne .-6
 8527               	.LSM524:
 8528 0084 FE01      		movw r30,r28
 8529 0086 3196      		adiw r30,1
 8530 0088 85E0      		ldi r24,lo8(5)
 8531 008a DF01      		movw r26,r30
 8532 008c 1D92      		st X+,__zero_reg__
 8533 008e 8A95      	        dec r24
 8534 0090 01F4      		brne .-6
 8535               	.LSM525:
 8536 0092 ECA5      		ldd r30,Y+44
 8537 0094 FDA5      		ldd r31,Y+45
 8538 0096 FA83      		std Y+2,r31
 8539 0098 E983      		std Y+1,r30
 8540               	.LSM526:
 8541 009a 4114      		cp r4,__zero_reg__
 8542 009c 5104      		cpc r5,__zero_reg__
 8543 009e 6104      		cpc r6,__zero_reg__
 8544 00a0 7104      		cpc r7,__zero_reg__
 8545 00a2 01F0      		breq .+2
 8546 00a4 00C0      		rjmp .L689
 8547               	.LSM527:
 8548 00a6 D101      		movw r26,r2
 8549 00a8 ED91      		ld r30,X+
 8550 00aa FC91      		ld r31,X
 8551 00ac 1197      		sbiw r26,1
 8552 00ae 8085      		ldd r24,Z+8
 8553 00b0 8B30      		cpi r24,lo8(11)
 8554 00b2 01F4      		brne .L674
 8555               	.LSM528:
 8556 00b4 9A96      		adiw r26,42
 8557 00b6 4D90      		ld r4,X+
 8558 00b8 5D90      		ld r5,X+
 8559 00ba 6D90      		ld r6,X+
 8560 00bc 7C90      		ld r7,X
 8561 00be 9D97      		sbiw r26,42+3
 8562               	.LVL370:
 8563 00c0 00C0      		rjmp .L689
 8564               	.LVL371:
 8565               	.L674:
 8566               	.LSM529:
 8567 00c2 F101      		movw r30,r2
 8568 00c4 028C      		ldd __tmp_reg__,Z+26
 8569 00c6 F38D      		ldd r31,Z+27
 8570 00c8 E02D      		mov r30,__tmp_reg__
 8571 00ca D101      		movw r26,r2
 8572 00cc 9296      		adiw r26,34
 8573 00ce 8D91      		ld r24,X+
 8574 00d0 9C91      		ld r25,X
 8575 00d2 9397      		sbiw r26,34+1
 8576 00d4 E81B      		sub r30,r24
 8577 00d6 F90B      		sbc r31,r25
 8578 00d8 FBA7      		std Y+43,r31
 8579 00da EAA7      		std Y+42,r30
 8580               	.LVL372:
 8581 00dc 00C0      		rjmp .L689
 8582               	.LVL373:
 8583               	.L680:
 8584               	.LBB72:
 8585               	.LSM530:
 8586 00de 8AA4      		ldd r8,Y+42
 8587 00e0 9BA4      		ldd r9,Y+43
 8588 00e2 EEA1      		ldd r30,Y+38
 8589 00e4 FFA1      		ldd r31,Y+39
 8590 00e6 8E1A      		sub r8,r30
 8591 00e8 9F0A      		sbc r9,r31
 8592               	.LVL374:
 8593               	.LSM531:
 8594 00ea CF01      		movw r24,r30
 8595 00ec A0E0      		ldi r26,lo8(0)
 8596 00ee B0E0      		ldi r27,hi8(0)
 8597 00f0 8EA7      		std Y+46,r24
 8598 00f2 9FA7      		std Y+47,r25
 8599 00f4 A8AB      		std Y+48,r26
 8600 00f6 B9AB      		std Y+49,r27
 8601               	.LVL375:
 8602               	.LSM532:
 8603 00f8 4114      		cp r4,__zero_reg__
 8604 00fa 5104      		cpc r5,__zero_reg__
 8605 00fc 6104      		cpc r6,__zero_reg__
 8606 00fe 7104      		cpc r7,__zero_reg__
 8607 0100 01F4      		brne .L675
 8608               	.LSM533:
 8609 0102 F101      		movw r30,r2
 8610 0104 A2A0      		ldd r10,Z+34
 8611 0106 B3A0      		ldd r11,Z+35
 8612 0108 C4A0      		ldd r12,Z+36
 8613 010a D5A0      		ldd r13,Z+37
 8614 010c 00C0      		rjmp .L690
 8615               	.L675:
 8616               	.LSM534:
 8617 010e C101      		movw r24,r2
 8618               	.LVL376:
 8619 0110 B301      		movw r22,r6
 8620 0112 A201      		movw r20,r4
 8621 0114 0E94 0000 		call fat_cluster_offset
 8622 0118 5901      		movw r10,r18
 8623 011a 6A01      		movw r12,r20
 8624 011c 8EA5      		ldd r24,Y+46
 8625 011e 9FA5      		ldd r25,Y+47
 8626 0120 A8A9      		ldd r26,Y+48
 8627 0122 B9A9      		ldd r27,Y+49
 8628               	.L690:
 8629 0124 A80E      		add r10,r24
 8630 0126 B91E      		adc r11,r25
 8631 0128 CA1E      		adc r12,r26
 8632 012a DB1E      		adc r13,r27
 8633               	.LVL377:
 8634               	.LSM535:
 8635 012c 1C82      		std Y+4,__zero_reg__
 8636 012e 1B82      		std Y+3,__zero_reg__
 8637               	.LSM536:
 8638 0130 D101      		movw r26,r2
 8639 0132 ED91      		ld r30,X+
 8640 0134 FC91      		ld r31,X
 8641 0136 0280      		ldd __tmp_reg__,Z+2
 8642 0138 F381      		ldd r31,Z+3
 8643 013a E02D      		mov r30,__tmp_reg__
 8644 013c 9501      		movw r18,r10
 8645 013e A601      		movw r20,r12
 8646 0140 60E0      		ldi r22,lo8(0)
 8647 0142 70E0      		ldi r23,lo8(0)
 8648 0144 80E0      		ldi r24,lo8(0)
 8649 0146 90E0      		ldi r25,lo8(0)
 8650 0148 8E01      		movw r16,r28
 8651 014a 0A5F      		subi r16,lo8(-(6))
 8652 014c 1F4F      		sbci r17,hi8(-(6))
 8653 014e A0E2      		ldi r26,lo8(32)
 8654 0150 EA2E      		mov r14,r26
 8655 0152 F12C      		mov r15,__zero_reg__
 8656 0154 6401      		movw r12,r8
 8657 0156 B0E0      		ldi r27,lo8(gs(fat_dir_entry_read_callback))
 8658 0158 AB2E      		mov r10,r27
 8659 015a B0E0      		ldi r27,hi8(gs(fat_dir_entry_read_callback))
 8660 015c BB2E      		mov r11,r27
 8661               	.LVL378:
 8662 015e 4E01      		movw r8,r28
 8663               	.LVL379:
 8664 0160 0894      		sec
 8665 0162 811C      		adc r8,__zero_reg__
 8666 0164 911C      		adc r9,__zero_reg__
 8667 0166 0995      		icall
 8668 0168 8823      		tst r24
 8669 016a 01F0      		breq .L684
 8670               	.LSM537:
 8671 016c 8B81      		ldd r24,Y+3
 8672 016e 9C81      		ldd r25,Y+4
 8673 0170 EEA1      		ldd r30,Y+38
 8674 0172 FFA1      		ldd r31,Y+39
 8675 0174 E80F      		add r30,r24
 8676 0176 F91F      		adc r31,r25
 8677 0178 FFA3      		std Y+39,r31
 8678 017a EEA3      		std Y+38,r30
 8679               	.LVL380:
 8680               	.LSM538:
 8681 017c 2AA5      		ldd r18,Y+42
 8682 017e 3BA5      		ldd r19,Y+43
 8683 0180 E217      		cp r30,r18
 8684 0182 F307      		cpc r31,r19
 8685 0184 00F0      		brlo .L689
 8686               	.LVL381:
 8687               	.LSM539:
 8688 0186 C101      		movw r24,r2
 8689 0188 B301      		movw r22,r6
 8690 018a A201      		movw r20,r4
 8691 018c 0E94 0000 		call fat_get_next_cluster
 8692 0190 2B01      		movw r4,r22
 8693 0192 3C01      		movw r6,r24
 8694               	.LVL382:
 8695 0194 6115      		cp r22,__zero_reg__
 8696 0196 7105      		cpc r23,__zero_reg__
 8697 0198 8105      		cpc r24,__zero_reg__
 8698 019a 9105      		cpc r25,__zero_reg__
 8699 019c 01F4      		brne .L685
 8700               	.LSM540:
 8701 019e A8A5      		ldd r26,Y+40
 8702 01a0 B9A5      		ldd r27,Y+41
 8703 01a2 9396      		adiw r26,35
 8704 01a4 4D90      		ld r4,X+
 8705 01a6 5D90      		ld r5,X+
 8706 01a8 6D90      		ld r6,X+
 8707 01aa 7C90      		ld r7,X
 8708 01ac 9697      		sbiw r26,35+3
 8709               	.LVL383:
 8710               	.LSM541:
 8711 01ae 1FA2      		std Y+39,__zero_reg__
 8712 01b0 1EA2      		std Y+38,__zero_reg__
 8713               	.LSM542:
 8714 01b2 00C0      		rjmp .L679
 8715               	.LVL384:
 8716               	.L685:
 8717               	.LSM543:
 8718 01b4 1FA2      		std Y+39,__zero_reg__
 8719 01b6 1EA2      		std Y+38,__zero_reg__
 8720               	.LVL385:
 8721               	.L689:
 8722               	.LBE72:
 8723               	.LSM544:
 8724 01b8 8D81      		ldd r24,Y+5
 8725 01ba 8823      		tst r24
 8726 01bc 01F4      		brne .+2
 8727 01be 00C0      		rjmp .L680
 8728               	.LVL386:
 8729               	.L679:
 8730               	.LSM545:
 8731 01c0 E8A5      		ldd r30,Y+40
 8732 01c2 F9A5      		ldd r31,Y+41
 8733 01c4 43AA      		std Z+51,r4
 8734 01c6 54AA      		std Z+52,r5
 8735 01c8 65AA      		std Z+53,r6
 8736 01ca 76AA      		std Z+54,r7
 8737               	.LSM546:
 8738 01cc 2EA1      		ldd r18,Y+38
 8739 01ce 3FA1      		ldd r19,Y+39
 8740 01d0 30AF      		std Z+56,r19
 8741 01d2 27AB      		std Z+55,r18
 8742               	.LSM547:
 8743 01d4 81E0      		ldi r24,lo8(1)
 8744 01d6 ACA5      		ldd r26,Y+44
 8745 01d8 BDA5      		ldd r27,Y+45
 8746 01da 9C91      		ld r25,X
 8747 01dc 9923      		tst r25
 8748 01de 01F4      		brne .L672
 8749               	.LVL387:
 8750               	.L684:
 8751               	.LBB73:
 8752               	.LSM548:
 8753 01e0 80E0      		ldi r24,lo8(0)
 8754               	.L672:
 8755               	/* epilogue start */
 8756               	.LBE73:
 8757               	.LSM549:
 8758 01e2 E196      		adiw r28,49
 8759               	.LVL388:
 8760 01e4 0FB6      		in __tmp_reg__,__SREG__
 8761 01e6 F894      		cli
 8762 01e8 DEBF      		out __SP_H__,r29
 8763 01ea 0FBE      		out __SREG__,__tmp_reg__
 8764 01ec CDBF      		out __SP_L__,r28
 8765               	.LVL389:
 8766 01ee CF91      		pop r28
 8767 01f0 DF91      		pop r29
 8768               	.LVL390:
 8769 01f2 1F91      		pop r17
 8770 01f4 0F91      		pop r16
 8771 01f6 FF90      		pop r15
 8772 01f8 EF90      		pop r14
 8773 01fa DF90      		pop r13
 8774 01fc CF90      		pop r12
 8775 01fe BF90      		pop r11
 8776 0200 AF90      		pop r10
 8777 0202 9F90      		pop r9
 8778 0204 8F90      		pop r8
 8779 0206 7F90      		pop r7
 8780 0208 6F90      		pop r6
 8781 020a 5F90      		pop r5
 8782 020c 4F90      		pop r4
 8783 020e 3F90      		pop r3
 8784 0210 2F90      		pop r2
 8785 0212 0895      		ret
 8786               	.LFE19:
 8788               		.section	.text.fat_get_dir_entry_of_path,"ax",@progbits
 8789               	.global	fat_get_dir_entry_of_path
 8791               	fat_get_dir_entry_of_path:
 8792               	.LFB10:
 8793               	.LSM550:
 8794               	.LVL391:
 8795 0000 8F92      		push r8
 8796 0002 9F92      		push r9
 8797 0004 AF92      		push r10
 8798 0006 BF92      		push r11
 8799 0008 CF92      		push r12
 8800 000a DF92      		push r13
 8801 000c EF92      		push r14
 8802 000e FF92      		push r15
 8803 0010 0F93      		push r16
 8804 0012 1F93      		push r17
 8805 0014 CF93      		push r28
 8806 0016 DF93      		push r29
 8807               	/* prologue: function */
 8808               	/* frame size = 0 */
 8809               	/* stack size = 12 */
 8810               	.L__stack_usage = 12
 8811 0018 4C01      		movw r8,r24
 8812 001a EB01      		movw r28,r22
 8813 001c 8A01      		movw r16,r20
 8814               	.LSM551:
 8815 001e 0097      		sbiw r24,0
 8816 0020 01F4      		brne .+2
 8817 0022 00C0      		rjmp .L705
 8818               	.LVL392:
 8819               	.LSM552:
 8820 0024 2097      		sbiw r28,0
 8821 0026 01F4      		brne .+2
 8822 0028 00C0      		rjmp .L705
 8823 002a 8881      		ld r24,Y
 8824 002c 8823      		tst r24
 8825 002e 01F4      		brne .+2
 8826 0030 00C0      		rjmp .L705
 8827 0032 4115      		cp r20,__zero_reg__
 8828 0034 5105      		cpc r21,__zero_reg__
 8829 0036 01F4      		brne .+2
 8830 0038 00C0      		rjmp .L705
 8831               	.LSM553:
 8832 003a 8F32      		cpi r24,lo8(47)
 8833 003c 01F4      		brne .L693
 8834               	.LSM554:
 8835 003e 2196      		adiw r28,1
 8836               	.LVL393:
 8837               	.L693:
 8838               	.LSM555:
 8839 0040 81E3      		ldi r24,lo8(49)
 8840 0042 D801      		movw r26,r16
 8841 0044 1D92      		st X+,__zero_reg__
 8842 0046 8A95      	        dec r24
 8843 0048 01F4      		brne .-6
 8844               	.LSM556:
 8845 004a 80E1      		ldi r24,lo8(16)
 8846 004c F801      		movw r30,r16
 8847 004e 80A3      		std Z+32,r24
 8848               	.L699:
 8849               	.LBB74:
 8850               	.LSM557:
 8851 0050 8881      		ld r24,Y
 8852 0052 8823      		tst r24
 8853 0054 01F4      		brne .+2
 8854 0056 00C0      		rjmp .L706
 8855               	.LSM558:
 8856 0058 C401      		movw r24,r8
 8857 005a B801      		movw r22,r16
 8858 005c 0E94 0000 		call fat_open_dir
 8859 0060 7C01      		movw r14,r24
 8860               	.LVL394:
 8861               	.LSM559:
 8862 0062 0097      		sbiw r24,0
 8863 0064 01F4      		brne .+2
 8864 0066 00C0      		rjmp .L705
 8865               	.LSM560:
 8866 0068 CE01      		movw r24,r28
 8867               	.LVL395:
 8868 006a 6FE2      		ldi r22,lo8(47)
 8869 006c 70E0      		ldi r23,hi8(47)
 8870 006e 0E94 0000 		call strchr
 8871               	.LVL396:
 8872               	.LSM561:
 8873 0072 0097      		sbiw r24,0
 8874 0074 01F0      		breq .L694
 8875               	.LSM562:
 8876 0076 A82F      		mov r26,r24
 8877 0078 AC1B      		sub r26,r28
 8878               	.LVL397:
 8879               	.LSM563:
 8880 007a 5C01      		movw r10,r24
 8881 007c 0894      		sec
 8882 007e A11C      		adc r10,__zero_reg__
 8883 0080 B11C      		adc r11,__zero_reg__
 8884               	.LVL398:
 8885 0082 00C0      		rjmp .L711
 8886               	.LVL399:
 8887               	.L694:
 8888               	.LSM564:
 8889 0084 DE01      		movw r26,r28
 8890 0086 0D90      		ld __tmp_reg__,X+
 8891 0088 0020      		tst __tmp_reg__
 8892 008a 01F4      		brne .-6
 8893 008c 1197      		sbiw r26,1
 8894 008e AC1B      		sub r26,r28
 8895               	.LVL400:
 8896               	.LSM565:
 8897 0090 5E01      		movw r10,r28
 8898 0092 AA0E      		add r10,r26
 8899 0094 B11C      		adc r11,__zero_reg__
 8900               	.LVL401:
 8901 0096 00C0      		rjmp .L711
 8902               	.LVL402:
 8903               	.L698:
 8904               	.LSM566:
 8905 0098 F801      		movw r30,r16
 8906 009a 0190      		ld __tmp_reg__,Z+
 8907 009c 0020      		tst __tmp_reg__
 8908 009e 01F4      		brne .-6
 8909 00a0 3197      		sbiw r30,1
 8910 00a2 E01B      		sub r30,r16
 8911 00a4 F10B      		sbc r31,r17
 8912 00a6 EC15      		cp r30,r12
 8913 00a8 FD05      		cpc r31,r13
 8914 00aa 01F4      		brne .L710
 8915               	.LSM567:
 8916 00ac CE01      		movw r24,r28
 8917 00ae B801      		movw r22,r16
 8918 00b0 A601      		movw r20,r12
 8919 00b2 0E94 0000 		call strncmp
 8920               	.LSM568:
 8921 00b6 0097      		sbiw r24,0
 8922 00b8 01F4      		brne .L710
 8923               	.LSM569:
 8924 00ba C701      		movw r24,r14
 8925 00bc 0E94 0000 		call fat_close_dir
 8926               	.LVL403:
 8927               	.LSM570:
 8928 00c0 CC0D      		add r28,r12
 8929 00c2 DD1D      		adc r29,r13
 8930               	.LVL404:
 8931 00c4 8881      		ld r24,Y
 8932 00c6 8823      		tst r24
 8933 00c8 01F0      		breq .L706
 8934               	.LSM571:
 8935 00ca D801      		movw r26,r16
 8936 00cc 9096      		adiw r26,32
 8937 00ce 8C91      		ld r24,X
 8938 00d0 9097      		sbiw r26,32
 8939 00d2 84FD      		sbrc r24,4
 8940 00d4 00C0      		rjmp .L707
 8941 00d6 00C0      		rjmp .L705
 8942               	.LVL405:
 8943               	.L711:
 8944               	.LSM572:
 8945 00d8 CA2E      		mov r12,r26
 8946 00da DD24      		clr r13
 8947               	.LVL406:
 8948               	.L710:
 8949               	.LSM573:
 8950 00dc C701      		movw r24,r14
 8951 00de B801      		movw r22,r16
 8952 00e0 0E94 0000 		call fat_read_dir
 8953 00e4 8823      		tst r24
 8954 00e6 01F4      		brne .L698
 8955 00e8 00C0      		rjmp .L697
 8956               	.LVL407:
 8957               	.L707:
 8958               	.LSM574:
 8959 00ea E501      		movw r28,r10
 8960               	.LSM575:
 8961 00ec EE24      		clr r14
 8962 00ee FF24      		clr r15
 8963               	.LVL408:
 8964               	.L697:
 8965               	.LSM576:
 8966 00f0 C701      		movw r24,r14
 8967 00f2 0E94 0000 		call fat_close_dir
 8968               	.LBE74:
 8969               	.LSM577:
 8970 00f6 00C0      		rjmp .L699
 8971               	.LVL409:
 8972               	.L705:
 8973               	.LBB75:
 8974               	.LSM578:
 8975 00f8 80E0      		ldi r24,lo8(0)
 8976 00fa 00C0      		rjmp .L692
 8977               	.L706:
 8978               	.LSM579:
 8979 00fc 81E0      		ldi r24,lo8(1)
 8980               	.L692:
 8981               	/* epilogue start */
 8982               	.LBE75:
 8983               	.LSM580:
 8984 00fe DF91      		pop r29
 8985 0100 CF91      		pop r28
 8986 0102 1F91      		pop r17
 8987 0104 0F91      		pop r16
 8988               	.LVL410:
 8989 0106 FF90      		pop r15
 8990 0108 EF90      		pop r14
 8991 010a DF90      		pop r13
 8992 010c CF90      		pop r12
 8993 010e BF90      		pop r11
 8994 0110 AF90      		pop r10
 8995 0112 9F90      		pop r9
 8996 0114 8F90      		pop r8
 8997               	.LVL411:
 8998 0116 0895      		ret
 8999               	.LFE10:
 9001               		.section	.text.fat_reset_dir,"ax",@progbits
 9002               	.global	fat_reset_dir
 9004               	fat_reset_dir:
 9005               	.LFB20:
 9006               	.LSM581:
 9007               	.LVL412:
 9008               	/* prologue: function */
 9009               	/* frame size = 0 */
 9010               	/* stack size = 0 */
 9011               	.L__stack_usage = 0
 9012 0000 FC01      		movw r30,r24
 9013               	.LSM582:
 9014 0002 0097      		sbiw r24,0
 9015 0004 01F0      		breq .L714
 9016               	.LSM583:
 9017 0006 23A1      		ldd r18,Z+35
 9018 0008 34A1      		ldd r19,Z+36
 9019 000a 45A1      		ldd r20,Z+37
 9020 000c 56A1      		ldd r21,Z+38
 9021 000e 23AB      		std Z+51,r18
 9022 0010 34AB      		std Z+52,r19
 9023 0012 45AB      		std Z+53,r20
 9024 0014 56AB      		std Z+54,r21
 9025               	.LSM584:
 9026 0016 10AE      		std Z+56,__zero_reg__
 9027 0018 17AA      		std Z+55,__zero_reg__
 9028               	.LSM585:
 9029 001a 81E0      		ldi r24,lo8(1)
 9030               	.LVL413:
 9031 001c 0895      		ret
 9032               	.L714:
 9033               	.LSM586:
 9034 001e 80E0      		ldi r24,lo8(0)
 9035               	.LSM587:
 9036 0020 0895      		ret
 9037               	.LFE20:
 9039               		.section	.text.fat_create_file,"ax",@progbits
 9040               	.global	fat_create_file
 9042               	fat_create_file:
 9043               	.LFB25:
 9044               	.LSM588:
 9045               	.LVL414:
 9046 0000 AF92      		push r10
 9047 0002 BF92      		push r11
 9048 0004 CF92      		push r12
 9049 0006 DF92      		push r13
 9050 0008 EF92      		push r14
 9051 000a FF92      		push r15
 9052 000c 0F93      		push r16
 9053 000e 1F93      		push r17
 9054 0010 CF93      		push r28
 9055 0012 DF93      		push r29
 9056               	/* prologue: function */
 9057               	/* frame size = 0 */
 9058               	/* stack size = 10 */
 9059               	.L__stack_usage = 10
 9060 0014 8C01      		movw r16,r24
 9061 0016 7B01      		movw r14,r22
 9062 0018 EA01      		movw r28,r20
 9063               	.LSM589:
 9064 001a 0097      		sbiw r24,0
 9065 001c 01F4      		brne .+2
 9066 001e 00C0      		rjmp .L725
 9067               	.LVL415:
 9068               	.LSM590:
 9069 0020 6115      		cp r22,__zero_reg__
 9070 0022 7105      		cpc r23,__zero_reg__
 9071 0024 01F4      		brne .+2
 9072 0026 00C0      		rjmp .L725
 9073 0028 DB01      		movw r26,r22
 9074 002a 8C91      		ld r24,X
 9075 002c 8823      		tst r24
 9076 002e 01F4      		brne .+2
 9077 0030 00C0      		rjmp .L725
 9078 0032 2097      		sbiw r28,0
 9079 0034 01F4      		brne .+2
 9080 0036 00C0      		rjmp .L725
 9081               	.LVL416:
 9082               	.L726:
 9083               	.LSM591:
 9084 0038 C801      		movw r24,r16
 9085 003a BE01      		movw r22,r28
 9086 003c 0E94 0000 		call fat_read_dir
 9087 0040 8823      		tst r24
 9088 0042 01F0      		breq .L717
 9089               	.LSM592:
 9090 0044 C701      		movw r24,r14
 9091 0046 BE01      		movw r22,r28
 9092 0048 0E94 0000 		call strcmp
 9093 004c 0097      		sbiw r24,0
 9094 004e 01F4      		brne .L726
 9095               	.LSM593:
 9096 0050 C801      		movw r24,r16
 9097 0052 0E94 0000 		call fat_reset_dir
 9098 0056 00C0      		rjmp .L725
 9099               	.L717:
 9100               	.LSM594:
 9101 0058 F801      		movw r30,r16
 9102 005a C080      		ld r12,Z
 9103 005c D180      		ldd r13,Z+1
 9104               	.LVL417:
 9105               	.LSM595:
 9106 005e 5E01      		movw r10,r28
 9107 0060 EC2F      		mov r30,r28
 9108 0062 FB2D      		mov r31,r11
 9109 0064 81E3      		ldi r24,lo8(49)
 9110 0066 DF01      		movw r26,r30
 9111 0068 1D92      		st X+,__zero_reg__
 9112 006a 8A95      	        dec r24
 9113 006c 01F4      		brne .-6
 9114               	.LSM596:
 9115 006e CE01      		movw r24,r28
 9116 0070 B701      		movw r22,r14
 9117 0072 4FE1      		ldi r20,lo8(31)
 9118 0074 50E0      		ldi r21,hi8(31)
 9119 0076 0E94 0000 		call strncpy
 9120               	.LVL418:
 9121               	.LSM597:
 9122 007a B801      		movw r22,r16
 9123 007c 6D5D      		subi r22,lo8(-(35))
 9124 007e 7F4F      		sbci r23,hi8(-(35))
 9125               	.LSM598:
 9126 0080 C601      		movw r24,r12
 9127 0082 AE01      		movw r20,r28
 9128 0084 0E94 0000 		call fat_find_offset_for_dir_entry.clone.0
 9129 0088 29A7      		std Y+41,r18
 9130 008a 3AA7      		std Y+42,r19
 9131 008c 4BA7      		std Y+43,r20
 9132 008e 5CA7      		std Y+44,r21
 9133 0090 6DA7      		std Y+45,r22
 9134 0092 7EA7      		std Y+46,r23
 9135 0094 8FA7      		std Y+47,r24
 9136 0096 98AB      		std Y+48,r25
 9137 0098 232B      		or r18,r19
 9138 009a 242B      		or r18,r20
 9139 009c 252B      		or r18,r21
 9140 009e 262B      		or r18,r22
 9141 00a0 272B      		or r18,r23
 9142 00a2 282B      		or r18,r24
 9143 00a4 292B      		or r18,r25
 9144 00a6 01F0      		breq .L725
 9145               	.LSM599:
 9146 00a8 C601      		movw r24,r12
 9147 00aa BE01      		movw r22,r28
 9148 00ac 0E94 0000 		call fat_write_dir_entry
 9149               	.LSM600:
 9150 00b0 91E0      		ldi r25,lo8(1)
 9151 00b2 8823      		tst r24
 9152 00b4 01F4      		brne .L716
 9153               	.LVL419:
 9154               	.L725:
 9155               	.LSM601:
 9156 00b6 90E0      		ldi r25,lo8(0)
 9157               	.L716:
 9158               	.LSM602:
 9159 00b8 892F      		mov r24,r25
 9160               	/* epilogue start */
 9161 00ba DF91      		pop r29
 9162 00bc CF91      		pop r28
 9163               	.LVL420:
 9164 00be 1F91      		pop r17
 9165 00c0 0F91      		pop r16
 9166               	.LVL421:
 9167 00c2 FF90      		pop r15
 9168 00c4 EF90      		pop r14
 9169               	.LVL422:
 9170 00c6 DF90      		pop r13
 9171 00c8 CF90      		pop r12
 9172 00ca BF90      		pop r11
 9173 00cc AF90      		pop r10
 9174 00ce 0895      		ret
 9175               	.LFE25:
 9177               		.section	.text.fat_delete_file,"ax",@progbits
 9178               	.global	fat_delete_file
 9180               	fat_delete_file:
 9181               	.LFB26:
 9182               	.LSM603:
 9183               	.LVL423:
 9184 0000 2F92      		push r2
 9185 0002 3F92      		push r3
 9186 0004 4F92      		push r4
 9187 0006 5F92      		push r5
 9188 0008 6F92      		push r6
 9189 000a 7F92      		push r7
 9190 000c 8F92      		push r8
 9191 000e 9F92      		push r9
 9192 0010 AF92      		push r10
 9193 0012 BF92      		push r11
 9194 0014 CF92      		push r12
 9195 0016 DF92      		push r13
 9196 0018 EF92      		push r14
 9197 001a FF92      		push r15
 9198 001c 0F93      		push r16
 9199 001e 1F93      		push r17
 9200 0020 DF93      		push r29
 9201 0022 CF93      		push r28
 9202 0024 CDB7      		in r28,__SP_L__
 9203 0026 DEB7      		in r29,__SP_H__
 9204 0028 2C97      		sbiw r28,12
 9205 002a 0FB6      		in __tmp_reg__,__SREG__
 9206 002c F894      		cli
 9207 002e DEBF      		out __SP_H__,r29
 9208 0030 0FBE      		out __SREG__,__tmp_reg__
 9209 0032 CDBF      		out __SP_L__,r28
 9210               	/* prologue: function */
 9211               	/* frame size = 12 */
 9212               	/* stack size = 30 */
 9213               	.L__stack_usage = 30
 9214 0034 1C01      		movw r2,r24
 9215 0036 6B01      		movw r12,r22
 9216               	.LSM604:
 9217 0038 0097      		sbiw r24,0
 9218 003a 01F4      		brne .+2
 9219 003c 00C0      		rjmp .L752
 9220               	.LVL424:
 9221               	.LSM605:
 9222 003e 6115      		cp r22,__zero_reg__
 9223 0040 7105      		cpc r23,__zero_reg__
 9224 0042 01F4      		brne .+2
 9225 0044 00C0      		rjmp .L752
 9226               	.LSM606:
 9227 0046 DB01      		movw r26,r22
 9228 0048 9996      		adiw r26,41
 9229 004a 5C90      		ld r5,X
 9230 004c 9997      		sbiw r26,41
 9231 004e 9A96      		adiw r26,42
 9232 0050 BC90      		ld r11,X
 9233 0052 9A97      		sbiw r26,42
 9234 0054 9B96      		adiw r26,43
 9235 0056 6C90      		ld r6,X
 9236 0058 9B97      		sbiw r26,43
 9237 005a 9C96      		adiw r26,44
 9238 005c 7C90      		ld r7,X
 9239 005e 9C97      		sbiw r26,44
 9240 0060 9D96      		adiw r26,45
 9241 0062 8C90      		ld r8,X
 9242 0064 9D97      		sbiw r26,45
 9243 0066 9E96      		adiw r26,46
 9244 0068 9C90      		ld r9,X
 9245 006a 9E97      		sbiw r26,46
 9246 006c 9F96      		adiw r26,47
 9247 006e AC90      		ld r10,X
 9248 0070 9F97      		sbiw r26,47
 9249 0072 D096      		adiw r26,48
 9250 0074 4C90      		ld r4,X
 9251 0076 D097      		sbiw r26,48
 9252               	.LVL425:
 9253               	.LSM607:
 9254 0078 852D      		mov r24,r5
 9255 007a 8B29      		or r24,r11
 9256 007c 8629      		or r24,r6
 9257 007e 8729      		or r24,r7
 9258 0080 8829      		or r24,r8
 9259 0082 8929      		or r24,r9
 9260 0084 8A29      		or r24,r10
 9261 0086 8429      		or r24,r4
 9262 0088 01F4      		brne .+2
 9263 008a 00C0      		rjmp .L752
 9264               	.LVL426:
 9265               	.L754:
 9266               	.LSM608:
 9267 008c D101      		movw r26,r2
 9268 008e ED91      		ld r30,X+
 9269 0090 FC91      		ld r31,X
 9270 0092 0190      		ld __tmp_reg__,Z+
 9271 0094 F081      		ld r31,Z
 9272 0096 E02D      		mov r30,__tmp_reg__
 9273 0098 252D      		mov r18,r5
 9274 009a 3B2D      		mov r19,r11
 9275 009c A301      		movw r20,r6
 9276 009e B401      		movw r22,r8
 9277 00a0 8A2D      		mov r24,r10
 9278 00a2 942D      		mov r25,r4
 9279 00a4 8E01      		movw r16,r28
 9280 00a6 0F5F      		subi r16,lo8(-(1))
 9281 00a8 1F4F      		sbci r17,hi8(-(1))
 9282 00aa BCE0      		ldi r27,lo8(12)
 9283 00ac EB2E      		mov r14,r27
 9284 00ae F12C      		mov r15,__zero_reg__
 9285 00b0 0995      		icall
 9286 00b2 8823      		tst r24
 9287 00b4 01F4      		brne .+2
 9288 00b6 00C0      		rjmp .L752
 9289               	.LSM609:
 9290 00b8 B5EE      		ldi r27,lo8(-27)
 9291 00ba B983      		std Y+1,r27
 9292               	.LSM610:
 9293 00bc D101      		movw r26,r2
 9294 00be ED91      		ld r30,X+
 9295 00c0 FC91      		ld r31,X
 9296 00c2 0480      		ldd __tmp_reg__,Z+4
 9297 00c4 F581      		ldd r31,Z+5
 9298 00c6 E02D      		mov r30,__tmp_reg__
 9299 00c8 252D      		mov r18,r5
 9300 00ca 3B2D      		mov r19,r11
 9301 00cc A301      		movw r20,r6
 9302 00ce B401      		movw r22,r8
 9303 00d0 8A2D      		mov r24,r10
 9304 00d2 942D      		mov r25,r4
 9305 00d4 8E01      		movw r16,r28
 9306 00d6 0F5F      		subi r16,lo8(-(1))
 9307 00d8 1F4F      		sbci r17,hi8(-(1))
 9308 00da 0995      		icall
 9309 00dc 8823      		tst r24
 9310 00de 01F4      		brne .+2
 9311 00e0 00C0      		rjmp .L752
 9312               	.LSM611:
 9313 00e2 8C85      		ldd r24,Y+12
 9314 00e4 8F30      		cpi r24,lo8(15)
 9315 00e6 01F4      		brne .L731
 9316               	.LSM612:
 9317 00e8 752D      		mov r23,r5
 9318 00ea 705E      		subi r23,lo8(-(32))
 9319 00ec 61E0      		ldi r22,lo8(1)
 9320 00ee 7515      		cp r23,r5
 9321 00f0 00F0      		brlo .L732
 9322 00f2 60E0      		ldi r22,lo8(0)
 9323               	.L732:
 9324 00f4 6B0D      		add r22,r11
 9325 00f6 51E0      		ldi r21,lo8(1)
 9326 00f8 6B15      		cp r22,r11
 9327 00fa 00F0      		brlo .L734
 9328 00fc 50E0      		ldi r21,lo8(0)
 9329               	.L734:
 9330 00fe 560D      		add r21,r6
 9331 0100 41E0      		ldi r20,lo8(1)
 9332 0102 5615      		cp r21,r6
 9333 0104 00F0      		brlo .L736
 9334 0106 40E0      		ldi r20,lo8(0)
 9335               	.L736:
 9336 0108 470D      		add r20,r7
 9337 010a 31E0      		ldi r19,lo8(1)
 9338 010c 4715      		cp r20,r7
 9339 010e 00F0      		brlo .L738
 9340 0110 30E0      		ldi r19,lo8(0)
 9341               	.L738:
 9342 0112 380D      		add r19,r8
 9343 0114 21E0      		ldi r18,lo8(1)
 9344 0116 3815      		cp r19,r8
 9345 0118 00F0      		brlo .L740
 9346 011a 20E0      		ldi r18,lo8(0)
 9347               	.L740:
 9348 011c 290D      		add r18,r9
 9349 011e 91E0      		ldi r25,lo8(1)
 9350 0120 2915      		cp r18,r9
 9351 0122 00F0      		brlo .L742
 9352 0124 90E0      		ldi r25,lo8(0)
 9353               	.L742:
 9354 0126 9A0D      		add r25,r10
 9355 0128 81E0      		ldi r24,lo8(1)
 9356 012a 9A15      		cp r25,r10
 9357 012c 00F0      		brlo .L744
 9358 012e 80E0      		ldi r24,lo8(0)
 9359               	.L744:
 9360 0130 572E      		mov r5,r23
 9361               	.LVL427:
 9362 0132 B62E      		mov r11,r22
 9363               	.LVL428:
 9364 0134 652E      		mov r6,r21
 9365 0136 742E      		mov r7,r20
 9366 0138 832E      		mov r8,r19
 9367 013a 922E      		mov r9,r18
 9368 013c A92E      		mov r10,r25
 9369 013e 480E      		add r4,r24
 9370               	.LVL429:
 9371               	.LSM613:
 9372 0140 00C0      		rjmp .L754
 9373               	.LVL430:
 9374               	.L731:
 9375               	.LSM614:
 9376 0142 F601      		movw r30,r12
 9377 0144 41A1      		ldd r20,Z+33
 9378 0146 52A1      		ldd r21,Z+34
 9379 0148 63A1      		ldd r22,Z+35
 9380 014a 74A1      		ldd r23,Z+36
 9381 014c 4115      		cp r20,__zero_reg__
 9382 014e 5105      		cpc r21,__zero_reg__
 9383 0150 6105      		cpc r22,__zero_reg__
 9384 0152 7105      		cpc r23,__zero_reg__
 9385 0154 01F0      		breq .L753
 9386               	.LSM615:
 9387 0156 C101      		movw r24,r2
 9388 0158 0E94 0000 		call fat_free_clusters
 9389 015c 21E0      		ldi r18,lo8(1)
 9390 015e 30E0      		ldi r19,hi8(1)
 9391 0160 8823      		tst r24
 9392 0162 01F4      		brne .L746
 9393 0164 20E0      		ldi r18,lo8(0)
 9394 0166 30E0      		ldi r19,hi8(0)
 9395 0168 00C0      		rjmp .L746
 9396               	.L753:
 9397               	.LSM616:
 9398 016a 21E0      		ldi r18,lo8(1)
 9399 016c 30E0      		ldi r19,hi8(1)
 9400               	.L746:
 9401               	.LSM617:
 9402 016e 822F      		mov r24,r18
 9403 0170 00C0      		rjmp .L729
 9404               	.LVL431:
 9405               	.L752:
 9406               	.LSM618:
 9407 0172 80E0      		ldi r24,lo8(0)
 9408               	.L729:
 9409               	/* epilogue start */
 9410               	.LSM619:
 9411 0174 2C96      		adiw r28,12
 9412 0176 0FB6      		in __tmp_reg__,__SREG__
 9413 0178 F894      		cli
 9414 017a DEBF      		out __SP_H__,r29
 9415 017c 0FBE      		out __SREG__,__tmp_reg__
 9416 017e CDBF      		out __SP_L__,r28
 9417 0180 CF91      		pop r28
 9418 0182 DF91      		pop r29
 9419 0184 1F91      		pop r17
 9420 0186 0F91      		pop r16
 9421 0188 FF90      		pop r15
 9422 018a EF90      		pop r14
 9423 018c DF90      		pop r13
 9424 018e CF90      		pop r12
 9425               	.LVL432:
 9426 0190 BF90      		pop r11
 9427 0192 AF90      		pop r10
 9428 0194 9F90      		pop r9
 9429 0196 8F90      		pop r8
 9430 0198 7F90      		pop r7
 9431 019a 6F90      		pop r6
 9432 019c 5F90      		pop r5
 9433 019e 4F90      		pop r4
 9434 01a0 3F90      		pop r3
 9435 01a2 2F90      		pop r2
 9436               	.LVL433:
 9437 01a4 0895      		ret
 9438               	.LFE26:
 9440               		.section	.text.fat_create_dir,"ax",@progbits
 9441               	.global	fat_create_dir
 9443               	fat_create_dir:
 9444               	.LFB27:
 9445               	.LSM620:
 9446               	.LVL434:
 9447 0000 2F92      		push r2
 9448 0002 3F92      		push r3
 9449 0004 4F92      		push r4
 9450 0006 5F92      		push r5
 9451 0008 6F92      		push r6
 9452 000a 7F92      		push r7
 9453 000c 8F92      		push r8
 9454 000e 9F92      		push r9
 9455 0010 AF92      		push r10
 9456 0012 BF92      		push r11
 9457 0014 CF92      		push r12
 9458 0016 DF92      		push r13
 9459 0018 EF92      		push r14
 9460 001a FF92      		push r15
 9461 001c 0F93      		push r16
 9462 001e 1F93      		push r17
 9463 0020 DF93      		push r29
 9464 0022 CF93      		push r28
 9465 0024 CDB7      		in r28,__SP_L__
 9466 0026 DEB7      		in r29,__SP_H__
 9467 0028 2C97      		sbiw r28,12
 9468 002a 0FB6      		in __tmp_reg__,__SREG__
 9469 002c F894      		cli
 9470 002e DEBF      		out __SP_H__,r29
 9471 0030 0FBE      		out __SREG__,__tmp_reg__
 9472 0032 CDBF      		out __SP_L__,r28
 9473               	/* prologue: function */
 9474               	/* frame size = 12 */
 9475               	/* stack size = 30 */
 9476               	.L__stack_usage = 30
 9477 0034 9887      		std Y+8,r25
 9478 0036 8F83      		std Y+7,r24
 9479 0038 7A87      		std Y+10,r23
 9480 003a 6987      		std Y+9,r22
 9481 003c 5C87      		std Y+12,r21
 9482 003e 4B87      		std Y+11,r20
 9483               	.LSM621:
 9484 0040 0097      		sbiw r24,0
 9485 0042 01F4      		brne .+2
 9486 0044 00C0      		rjmp .L792
 9487               	.LSM622:
 9488 0046 6115      		cp r22,__zero_reg__
 9489 0048 7105      		cpc r23,__zero_reg__
 9490 004a 01F4      		brne .+2
 9491 004c 00C0      		rjmp .L792
 9492 004e DB01      		movw r26,r22
 9493 0050 8C91      		ld r24,X
 9494               	.LVL435:
 9495 0052 8823      		tst r24
 9496 0054 01F4      		brne .+2
 9497 0056 00C0      		rjmp .L792
 9498 0058 4115      		cp r20,__zero_reg__
 9499 005a 5105      		cpc r21,__zero_reg__
 9500 005c 01F4      		brne .L796
 9501 005e 00C0      		rjmp .L792
 9502               	.LVL436:
 9503               	.L758:
 9504               	.LSM623:
 9505 0060 8985      		ldd r24,Y+9
 9506 0062 9A85      		ldd r25,Y+10
 9507 0064 B801      		movw r22,r16
 9508 0066 0E94 0000 		call strcmp
 9509 006a 0097      		sbiw r24,0
 9510 006c 01F4      		brne .L794
 9511               	.LSM624:
 9512 006e 8F81      		ldd r24,Y+7
 9513 0070 9885      		ldd r25,Y+8
 9514 0072 0E94 0000 		call fat_reset_dir
 9515 0076 00C0      		rjmp .L792
 9516               	.L796:
 9517 0078 0B85      		ldd r16,Y+11
 9518 007a 1C85      		ldd r17,Y+12
 9519               	.L794:
 9520               	.LSM625:
 9521 007c 8F81      		ldd r24,Y+7
 9522 007e 9885      		ldd r25,Y+8
 9523 0080 B801      		movw r22,r16
 9524 0082 0E94 0000 		call fat_read_dir
 9525 0086 8823      		tst r24
 9526 0088 01F4      		brne .L758
 9527 008a 1C87      		std Y+12,r17
 9528 008c 0B87      		std Y+11,r16
 9529               	.LSM626:
 9530 008e EF81      		ldd r30,Y+7
 9531 0090 F885      		ldd r31,Y+8
 9532 0092 0190      		ld __tmp_reg__,Z+
 9533 0094 F081      		ld r31,Z
 9534 0096 E02D      		mov r30,__tmp_reg__
 9535 0098 FA83      		std Y+2,r31
 9536 009a E983      		std Y+1,r30
 9537               	.LVL437:
 9538               	.LSM627:
 9539 009c CF01      		movw r24,r30
 9540 009e 40E0      		ldi r20,lo8(0)
 9541 00a0 50E0      		ldi r21,hi8(0)
 9542 00a2 BA01      		movw r22,r20
 9543 00a4 01E0      		ldi r16,lo8(1)
 9544 00a6 10E0      		ldi r17,hi8(1)
 9545 00a8 20E0      		ldi r18,hlo8(1)
 9546 00aa 30E0      		ldi r19,hhi8(1)
 9547 00ac 0E94 0000 		call fat_append_clusters
 9548               	.LVL438:
 9549 00b0 6B83      		std Y+3,r22
 9550 00b2 7C83      		std Y+4,r23
 9551 00b4 8D83      		std Y+5,r24
 9552 00b6 9E83      		std Y+6,r25
 9553               	.LVL439:
 9554               	.LSM628:
 9555 00b8 6115      		cp r22,__zero_reg__
 9556 00ba 7105      		cpc r23,__zero_reg__
 9557 00bc 8105      		cpc r24,__zero_reg__
 9558 00be 9105      		cpc r25,__zero_reg__
 9559 00c0 01F4      		brne .+2
 9560 00c2 00C0      		rjmp .L792
 9561               	.LSM629:
 9562 00c4 8981      		ldd r24,Y+1
 9563 00c6 9A81      		ldd r25,Y+2
 9564 00c8 4B81      		ldd r20,Y+3
 9565 00ca 5C81      		ldd r21,Y+4
 9566 00cc 6D81      		ldd r22,Y+5
 9567 00ce 7E81      		ldd r23,Y+6
 9568 00d0 0E94 0000 		call fat_clear_cluster
 9569               	.LVL440:
 9570               	.LSM630:
 9571 00d4 EB85      		ldd r30,Y+11
 9572 00d6 FC85      		ldd r31,Y+12
 9573 00d8 81E3      		ldi r24,lo8(49)
 9574 00da DF01      		movw r26,r30
 9575 00dc 1D92      		st X+,__zero_reg__
 9576 00de 8A95      	        dec r24
 9577 00e0 01F4      		brne .-6
 9578               	.LSM631:
 9579 00e2 80E1      		ldi r24,lo8(16)
 9580 00e4 EB85      		ldd r30,Y+11
 9581 00e6 FC85      		ldd r31,Y+12
 9582 00e8 80A3      		std Z+32,r24
 9583               	.LSM632:
 9584 00ea 8B81      		ldd r24,Y+3
 9585 00ec 9C81      		ldd r25,Y+4
 9586 00ee AD81      		ldd r26,Y+5
 9587 00f0 BE81      		ldd r27,Y+6
 9588 00f2 0297      		sbiw r24,2
 9589 00f4 A109      		sbc r26,__zero_reg__
 9590 00f6 B109      		sbc r27,__zero_reg__
 9591 00f8 5C01      		movw r10,r24
 9592 00fa 6D01      		movw r12,r26
 9593 00fc A981      		ldd r26,Y+1
 9594 00fe BA81      		ldd r27,Y+2
 9595 0100 5896      		adiw r26,24
 9596 0102 2D90      		ld r2,X+
 9597 0104 3C90      		ld r3,X
 9598 0106 5997      		sbiw r26,24+1
 9599 0108 9501      		movw r18,r10
 9600 010a A601      		movw r20,r12
 9601 010c 60E0      		ldi r22,lo8(0)
 9602 010e 70E0      		ldi r23,lo8(0)
 9603 0110 80E0      		ldi r24,lo8(0)
 9604 0112 90E0      		ldi r25,lo8(0)
 9605 0114 5101      		movw r10,r2
 9606 0116 CC24      		clr r12
 9607 0118 DD24      		clr r13
 9608 011a EE24      		clr r14
 9609 011c FF24      		clr r15
 9610 011e 00E0      		ldi r16,lo8(0)
 9611 0120 10E0      		ldi r17,lo8(0)
 9612 0122 0E94 0000 		call __muldi3
 9613               	.LSM633:
 9614 0126 E981      		ldd r30,Y+1
 9615 0128 FA81      		ldd r31,Y+2
 9616 012a E28C      		ldd r14,Z+26
 9617 012c 038D      		ldd r16,Z+27
 9618 012e 148D      		ldd r17,Z+28
 9619 0130 258C      		ldd r2,Z+29
 9620 0132 A68C      		ldd r10,Z+30
 9621 0134 B78D      		ldd r27,Z+31
 9622 0136 A0A1      		ldd r26,Z+32
 9623 0138 F1A0      		ldd r15,Z+33
 9624 013a E20E      		add r14,r18
 9625 013c F1E0      		ldi r31,lo8(1)
 9626 013e E216      		cp r14,r18
 9627 0140 00F0      		brlo .L759
 9628 0142 F0E0      		ldi r31,lo8(0)
 9629               	.L759:
 9630 0144 030F      		add r16,r19
 9631 0146 21E0      		ldi r18,lo8(1)
 9632 0148 0317      		cp r16,r19
 9633 014a 00F0      		brlo .L760
 9634 014c 20E0      		ldi r18,lo8(0)
 9635               	.L760:
 9636 014e F00F      		add r31,r16
 9637 0150 31E0      		ldi r19,lo8(1)
 9638 0152 F017      		cp r31,r16
 9639 0154 00F0      		brlo .L761
 9640 0156 30E0      		ldi r19,lo8(0)
 9641               	.L761:
 9642 0158 232B      		or r18,r19
 9643 015a 140F      		add r17,r20
 9644 015c 31E0      		ldi r19,lo8(1)
 9645 015e 1417      		cp r17,r20
 9646 0160 00F0      		brlo .L762
 9647 0162 30E0      		ldi r19,lo8(0)
 9648               	.L762:
 9649 0164 210F      		add r18,r17
 9650 0166 41E0      		ldi r20,lo8(1)
 9651 0168 2117      		cp r18,r17
 9652 016a 00F0      		brlo .L763
 9653 016c 40E0      		ldi r20,lo8(0)
 9654               	.L763:
 9655 016e 342B      		or r19,r20
 9656 0170 250E      		add r2,r21
 9657 0172 11E0      		ldi r17,lo8(1)
 9658 0174 2516      		cp r2,r21
 9659 0176 00F0      		brlo .L764
 9660 0178 10E0      		ldi r17,lo8(0)
 9661               	.L764:
 9662 017a 532F      		mov r21,r19
 9663 017c 520D      		add r21,r2
 9664 017e 31E0      		ldi r19,lo8(1)
 9665 0180 5215      		cp r21,r2
 9666 0182 00F0      		brlo .L765
 9667 0184 30E0      		ldi r19,lo8(0)
 9668               	.L765:
 9669 0186 132B      		or r17,r19
 9670 0188 A60E      		add r10,r22
 9671 018a 41E0      		ldi r20,lo8(1)
 9672 018c A616      		cp r10,r22
 9673 018e 00F0      		brlo .L766
 9674 0190 40E0      		ldi r20,lo8(0)
 9675               	.L766:
 9676 0192 1A0D      		add r17,r10
 9677 0194 31E0      		ldi r19,lo8(1)
 9678 0196 1A15      		cp r17,r10
 9679 0198 00F0      		brlo .L767
 9680 019a 30E0      		ldi r19,lo8(0)
 9681               	.L767:
 9682 019c 432B      		or r20,r19
 9683 019e B70F      		add r27,r23
 9684 01a0 31E0      		ldi r19,lo8(1)
 9685 01a2 B717      		cp r27,r23
 9686 01a4 00F0      		brlo .L768
 9687 01a6 30E0      		ldi r19,lo8(0)
 9688               	.L768:
 9689 01a8 4B0F      		add r20,r27
 9690 01aa 61E0      		ldi r22,lo8(1)
 9691 01ac 4B17      		cp r20,r27
 9692 01ae 00F0      		brlo .L769
 9693 01b0 60E0      		ldi r22,lo8(0)
 9694               	.L769:
 9695 01b2 362B      		or r19,r22
 9696 01b4 A80F      		add r26,r24
 9697 01b6 61E0      		ldi r22,lo8(1)
 9698 01b8 A817      		cp r26,r24
 9699 01ba 00F0      		brlo .L770
 9700 01bc 60E0      		ldi r22,lo8(0)
 9701               	.L770:
 9702 01be 3A0F      		add r19,r26
 9703 01c0 81E0      		ldi r24,lo8(1)
 9704 01c2 3A17      		cp r19,r26
 9705 01c4 00F0      		brlo .L771
 9706 01c6 80E0      		ldi r24,lo8(0)
 9707               	.L771:
 9708 01c8 862B      		or r24,r22
 9709 01ca 9F0D      		add r25,r15
 9710 01cc 890F      		add r24,r25
 9711 01ce AB85      		ldd r26,Y+11
 9712 01d0 BC85      		ldd r27,Y+12
 9713 01d2 9996      		adiw r26,41
 9714 01d4 EC92      		st X,r14
 9715 01d6 9997      		sbiw r26,41
 9716 01d8 9A96      		adiw r26,42
 9717 01da FC93      		st X,r31
 9718 01dc 9A97      		sbiw r26,42
 9719 01de 9B96      		adiw r26,43
 9720 01e0 2C93      		st X,r18
 9721 01e2 9B97      		sbiw r26,43
 9722 01e4 9C96      		adiw r26,44
 9723 01e6 5C93      		st X,r21
 9724 01e8 9C97      		sbiw r26,44
 9725 01ea 9D96      		adiw r26,45
 9726 01ec 1C93      		st X,r17
 9727 01ee 9D97      		sbiw r26,45
 9728 01f0 9E96      		adiw r26,46
 9729 01f2 4C93      		st X,r20
 9730 01f4 9E97      		sbiw r26,46
 9731 01f6 9F96      		adiw r26,47
 9732 01f8 3C93      		st X,r19
 9733 01fa 9F97      		sbiw r26,47
 9734 01fc D096      		adiw r26,48
 9735 01fe 8C93      		st X,r24
 9736 0200 D097      		sbiw r26,48
 9737               	.LSM634:
 9738 0202 8EE2      		ldi r24,lo8(46)
 9739 0204 8C93      		st X,r24
 9740               	.LSM635:
 9741 0206 8B81      		ldd r24,Y+3
 9742 0208 9C81      		ldd r25,Y+4
 9743 020a AD81      		ldd r26,Y+5
 9744 020c BE81      		ldd r27,Y+6
 9745 020e EB85      		ldd r30,Y+11
 9746 0210 FC85      		ldd r31,Y+12
 9747 0212 81A3      		std Z+33,r24
 9748 0214 92A3      		std Z+34,r25
 9749 0216 A3A3      		std Z+35,r26
 9750 0218 B4A3      		std Z+36,r27
 9751               	.LSM636:
 9752 021a 8981      		ldd r24,Y+1
 9753 021c 9A81      		ldd r25,Y+2
 9754 021e BF01      		movw r22,r30
 9755 0220 0E94 0000 		call fat_write_dir_entry
 9756 0224 8823      		tst r24
 9757 0226 01F4      		brne .+2
 9758 0228 00C0      		rjmp .L797
 9759               	.L772:
 9760               	.LSM637:
 9761 022a AB85      		ldd r26,Y+11
 9762 022c BC85      		ldd r27,Y+12
 9763 022e 9996      		adiw r26,41
 9764 0230 4C91      		ld r20,X
 9765 0232 9997      		sbiw r26,41
 9766 0234 9A96      		adiw r26,42
 9767 0236 3C91      		ld r19,X
 9768 0238 9A97      		sbiw r26,42
 9769 023a 9B96      		adiw r26,43
 9770 023c 2C91      		ld r18,X
 9771 023e 9B97      		sbiw r26,43
 9772 0240 9C96      		adiw r26,44
 9773 0242 9C91      		ld r25,X
 9774 0244 9C97      		sbiw r26,44
 9775 0246 9D96      		adiw r26,45
 9776 0248 8C91      		ld r24,X
 9777 024a 9D97      		sbiw r26,45
 9778 024c 9E96      		adiw r26,46
 9779 024e FC91      		ld r31,X
 9780 0250 9E97      		sbiw r26,46
 9781 0252 9F96      		adiw r26,47
 9782 0254 EC91      		ld r30,X
 9783 0256 9F97      		sbiw r26,47
 9784 0258 D096      		adiw r26,48
 9785 025a 1C91      		ld r17,X
 9786 025c D097      		sbiw r26,48
 9787 025e 642F      		mov r22,r20
 9788 0260 605E      		subi r22,lo8(-(32))
 9789 0262 51E0      		ldi r21,lo8(1)
 9790 0264 6417      		cp r22,r20
 9791 0266 00F0      		brlo .L773
 9792 0268 50E0      		ldi r21,lo8(0)
 9793               	.L773:
 9794 026a 530F      		add r21,r19
 9795 026c 41E0      		ldi r20,lo8(1)
 9796 026e 5317      		cp r21,r19
 9797 0270 00F0      		brlo .L775
 9798 0272 40E0      		ldi r20,lo8(0)
 9799               	.L775:
 9800 0274 420F      		add r20,r18
 9801 0276 31E0      		ldi r19,lo8(1)
 9802 0278 4217      		cp r20,r18
 9803 027a 00F0      		brlo .L777
 9804 027c 30E0      		ldi r19,lo8(0)
 9805               	.L777:
 9806 027e 390F      		add r19,r25
 9807 0280 21E0      		ldi r18,lo8(1)
 9808 0282 3917      		cp r19,r25
 9809 0284 00F0      		brlo .L779
 9810 0286 20E0      		ldi r18,lo8(0)
 9811               	.L779:
 9812 0288 280F      		add r18,r24
 9813 028a 91E0      		ldi r25,lo8(1)
 9814 028c 2817      		cp r18,r24
 9815 028e 00F0      		brlo .L781
 9816 0290 90E0      		ldi r25,lo8(0)
 9817               	.L781:
 9818 0292 9F0F      		add r25,r31
 9819 0294 81E0      		ldi r24,lo8(1)
 9820 0296 9F17      		cp r25,r31
 9821 0298 00F0      		brlo .L783
 9822 029a 80E0      		ldi r24,lo8(0)
 9823               	.L783:
 9824 029c 8E0F      		add r24,r30
 9825 029e 71E0      		ldi r23,lo8(1)
 9826 02a0 8E17      		cp r24,r30
 9827 02a2 00F0      		brlo .L785
 9828 02a4 70E0      		ldi r23,lo8(0)
 9829               	.L785:
 9830 02a6 710F      		add r23,r17
 9831 02a8 EB85      		ldd r30,Y+11
 9832 02aa FC85      		ldd r31,Y+12
 9833 02ac 61A7      		std Z+41,r22
 9834 02ae 52A7      		std Z+42,r21
 9835 02b0 43A7      		std Z+43,r20
 9836 02b2 34A7      		std Z+44,r19
 9837 02b4 25A7      		std Z+45,r18
 9838 02b6 96A7      		std Z+46,r25
 9839 02b8 87A7      		std Z+47,r24
 9840 02ba 70AB      		std Z+48,r23
 9841               	.LSM638:
 9842 02bc 8EE2      		ldi r24,lo8(46)
 9843 02be 8183      		std Z+1,r24
 9844               	.LSM639:
 9845 02c0 EF81      		ldd r30,Y+7
 9846 02c2 F885      		ldd r31,Y+8
 9847 02c4 83A1      		ldd r24,Z+35
 9848 02c6 94A1      		ldd r25,Z+36
 9849 02c8 A5A1      		ldd r26,Z+37
 9850 02ca B6A1      		ldd r27,Z+38
 9851 02cc EB85      		ldd r30,Y+11
 9852 02ce FC85      		ldd r31,Y+12
 9853 02d0 81A3      		std Z+33,r24
 9854 02d2 92A3      		std Z+34,r25
 9855 02d4 A3A3      		std Z+35,r26
 9856 02d6 B4A3      		std Z+36,r27
 9857               	.LSM640:
 9858 02d8 8981      		ldd r24,Y+1
 9859 02da 9A81      		ldd r25,Y+2
 9860 02dc BF01      		movw r22,r30
 9861 02de 0E94 0000 		call fat_write_dir_entry
 9862 02e2 8823      		tst r24
 9863 02e4 01F4      		brne .+2
 9864 02e6 00C0      		rjmp .L797
 9865               	.L786:
 9866               	.LSM641:
 9867 02e8 8B85      		ldd r24,Y+11
 9868 02ea 9C85      		ldd r25,Y+12
 9869 02ec 6985      		ldd r22,Y+9
 9870 02ee 7A85      		ldd r23,Y+10
 9871 02f0 4FE1      		ldi r20,lo8(31)
 9872 02f2 50E0      		ldi r21,hi8(31)
 9873 02f4 0E94 0000 		call strncpy
 9874               	.LSM642:
 9875 02f8 8B81      		ldd r24,Y+3
 9876 02fa 9C81      		ldd r25,Y+4
 9877 02fc AD81      		ldd r26,Y+5
 9878 02fe BE81      		ldd r27,Y+6
 9879 0300 EB85      		ldd r30,Y+11
 9880 0302 FC85      		ldd r31,Y+12
 9881 0304 81A3      		std Z+33,r24
 9882 0306 92A3      		std Z+34,r25
 9883 0308 A3A3      		std Z+35,r26
 9884 030a B4A3      		std Z+36,r27
 9885               	.LSM643:
 9886 030c 6F81      		ldd r22,Y+7
 9887 030e 7885      		ldd r23,Y+8
 9888 0310 6D5D      		subi r22,lo8(-(35))
 9889 0312 7F4F      		sbci r23,hi8(-(35))
 9890               	.LSM644:
 9891 0314 8981      		ldd r24,Y+1
 9892 0316 9A81      		ldd r25,Y+2
 9893 0318 AF01      		movw r20,r30
 9894 031a 0E94 0000 		call fat_find_offset_for_dir_entry.clone.0
 9895 031e AB85      		ldd r26,Y+11
 9896 0320 BC85      		ldd r27,Y+12
 9897 0322 9996      		adiw r26,41
 9898 0324 2C93      		st X,r18
 9899 0326 9997      		sbiw r26,41
 9900 0328 9A96      		adiw r26,42
 9901 032a 3C93      		st X,r19
 9902 032c 9A97      		sbiw r26,42
 9903 032e 9B96      		adiw r26,43
 9904 0330 4C93      		st X,r20
 9905 0332 9B97      		sbiw r26,43
 9906 0334 9C96      		adiw r26,44
 9907 0336 5C93      		st X,r21
 9908 0338 9C97      		sbiw r26,44
 9909 033a 9D96      		adiw r26,45
 9910 033c 6C93      		st X,r22
 9911 033e 9D97      		sbiw r26,45
 9912 0340 9E96      		adiw r26,46
 9913 0342 7C93      		st X,r23
 9914 0344 9E97      		sbiw r26,46
 9915 0346 9F96      		adiw r26,47
 9916 0348 8C93      		st X,r24
 9917 034a 9F97      		sbiw r26,47
 9918 034c D096      		adiw r26,48
 9919 034e 9C93      		st X,r25
 9920 0350 D097      		sbiw r26,48
 9921 0352 232B      		or r18,r19
 9922 0354 242B      		or r18,r20
 9923 0356 252B      		or r18,r21
 9924 0358 262B      		or r18,r22
 9925 035a 272B      		or r18,r23
 9926 035c 282B      		or r18,r24
 9927 035e 292B      		or r18,r25
 9928 0360 01F0      		breq .L797
 9929               	.L787:
 9930               	.LSM645:
 9931 0362 8981      		ldd r24,Y+1
 9932 0364 9A81      		ldd r25,Y+2
 9933 0366 6B85      		ldd r22,Y+11
 9934 0368 7C85      		ldd r23,Y+12
 9935 036a 0E94 0000 		call fat_write_dir_entry
 9936 036e 8823      		tst r24
 9937 0370 01F4      		brne .L793
 9938               	.L797:
 9939               	.LSM646:
 9940 0372 8981      		ldd r24,Y+1
 9941 0374 9A81      		ldd r25,Y+2
 9942 0376 4B81      		ldd r20,Y+3
 9943 0378 5C81      		ldd r21,Y+4
 9944 037a 6D81      		ldd r22,Y+5
 9945 037c 7E81      		ldd r23,Y+6
 9946 037e 0E94 0000 		call fat_free_clusters
 9947               	.LVL441:
 9948               	.L792:
 9949               	.LSM647:
 9950 0382 80E0      		ldi r24,lo8(0)
 9951 0384 00C0      		rjmp .L756
 9952               	.LVL442:
 9953               	.L793:
 9954               	.LSM648:
 9955 0386 81E0      		ldi r24,lo8(1)
 9956               	.LVL443:
 9957               	.L756:
 9958               	/* epilogue start */
 9959               	.LSM649:
 9960 0388 2C96      		adiw r28,12
 9961               	.LVL444:
 9962 038a 0FB6      		in __tmp_reg__,__SREG__
 9963 038c F894      		cli
 9964 038e DEBF      		out __SP_H__,r29
 9965 0390 0FBE      		out __SREG__,__tmp_reg__
 9966 0392 CDBF      		out __SP_L__,r28
 9967               	.LVL445:
 9968 0394 CF91      		pop r28
 9969 0396 DF91      		pop r29
 9970               	.LVL446:
 9971 0398 1F91      		pop r17
 9972 039a 0F91      		pop r16
 9973 039c FF90      		pop r15
 9974 039e EF90      		pop r14
 9975 03a0 DF90      		pop r13
 9976 03a2 CF90      		pop r12
 9977 03a4 BF90      		pop r11
 9978 03a6 AF90      		pop r10
 9979 03a8 9F90      		pop r9
 9980 03aa 8F90      		pop r8
 9981 03ac 7F90      		pop r7
 9982 03ae 6F90      		pop r6
 9983 03b0 5F90      		pop r5
 9984 03b2 4F90      		pop r4
 9985 03b4 3F90      		pop r3
 9986 03b6 2F90      		pop r2
 9987 03b8 0895      		ret
 9988               	.LFE27:
 9990               		.section	.text.fat_get_fs_size,"ax",@progbits
 9991               	.global	fat_get_fs_size
 9993               	fat_get_fs_size:
 9994               	.LFB28:
 9995               	.LSM650:
 9996               	.LVL447:
 9997 0000 2F92      		push r2
 9998 0002 3F92      		push r3
 9999 0004 4F92      		push r4
 10000 0006 5F92      		push r5
 10001 0008 6F92      		push r6
 10002 000a 7F92      		push r7
 10003 000c 8F92      		push r8
 10004 000e 9F92      		push r9
 10005 0010 AF92      		push r10
 10006 0012 BF92      		push r11
 10007 0014 CF92      		push r12
 10008 0016 DF92      		push r13
 10009 0018 EF92      		push r14
 10010 001a FF92      		push r15
 10011 001c 0F93      		push r16
 10012 001e 1F93      		push r17
 10013               	/* prologue: function */
 10014               	/* frame size = 0 */
 10015               	/* stack size = 16 */
 10016               	.L__stack_usage = 16
 10017 0020 FC01      		movw r30,r24
 10018               	.LSM651:
 10019 0022 0097      		sbiw r24,0
 10020 0024 01F0      		breq .L801
 10021               	.LSM652:
 10022 0026 A081      		ld r26,Z
 10023 0028 B181      		ldd r27,Z+1
 10024 002a 1896      		adiw r26,8
 10025 002c 8C91      		ld r24,X
 10026 002e 1897      		sbiw r26,8
 10027               	.LVL448:
 10028 0030 A288      		ldd r10,Z+18
 10029 0032 B388      		ldd r11,Z+19
 10030 0034 C488      		ldd r12,Z+20
 10031 0036 D588      		ldd r13,Z+21
 10032 0038 208C      		ldd r2,Z+24
 10033 003a 318C      		ldd r3,Z+25
 10034 003c 8B30      		cpi r24,lo8(11)
 10035 003e 01F4      		brne .L800
 10036               	.LSM653:
 10037 0040 D601      		movw r26,r12
 10038 0042 C501      		movw r24,r10
 10039 0044 02E0      		ldi r16,2
 10040 0046 B695      	1:	lsr r27
 10041 0048 A795      		ror r26
 10042 004a 9795      		ror r25
 10043 004c 8795      		ror r24
 10044 004e 0A95      		dec r16
 10045 0050 01F4      		brne 1b
 10046 0052 00C0      		rjmp .L802
 10047               	.L800:
 10048               	.LSM654:
 10049 0054 D601      		movw r26,r12
 10050 0056 C501      		movw r24,r10
 10051 0058 B695      		lsr r27
 10052 005a A795      		ror r26
 10053 005c 9795      		ror r25
 10054 005e 8795      		ror r24
 10055               	.L802:
 10056 0060 0297      		sbiw r24,2
 10057 0062 A109      		sbc r26,__zero_reg__
 10058 0064 B109      		sbc r27,__zero_reg__
 10059 0066 5C01      		movw r10,r24
 10060 0068 6D01      		movw r12,r26
 10061 006a 9C01      		movw r18,r24
 10062 006c A601      		movw r20,r12
 10063 006e 60E0      		ldi r22,lo8(0)
 10064 0070 70E0      		ldi r23,lo8(0)
 10065 0072 80E0      		ldi r24,lo8(0)
 10066 0074 90E0      		ldi r25,lo8(0)
 10067 0076 5101      		movw r10,r2
 10068 0078 CC24      		clr r12
 10069 007a DD24      		clr r13
 10070 007c EE24      		clr r14
 10071 007e FF24      		clr r15
 10072 0080 00E0      		ldi r16,lo8(0)
 10073 0082 10E0      		ldi r17,lo8(0)
 10074 0084 0E94 0000 		call __muldi3
 10075               	.LVL449:
 10076 0088 00C0      		rjmp .L799
 10077               	.LVL450:
 10078               	.L801:
 10079               	.LSM655:
 10080 008a 20E0      		ldi r18,lo8(0)
 10081 008c 30E0      		ldi r19,lo8(0)
 10082 008e 40E0      		ldi r20,lo8(0)
 10083 0090 50E0      		ldi r21,lo8(0)
 10084 0092 60E0      		ldi r22,lo8(0)
 10085 0094 70E0      		ldi r23,lo8(0)
 10086 0096 80E0      		ldi r24,lo8(0)
 10087               	.LVL451:
 10088 0098 90E0      		ldi r25,lo8(0)
 10089               	.LVL452:
 10090               	.L799:
 10091               	/* epilogue start */
 10092               	.LSM656:
 10093 009a 1F91      		pop r17
 10094 009c 0F91      		pop r16
 10095 009e FF90      		pop r15
 10096 00a0 EF90      		pop r14
 10097 00a2 DF90      		pop r13
 10098 00a4 CF90      		pop r12
 10099 00a6 BF90      		pop r11
 10100 00a8 AF90      		pop r10
 10101 00aa 9F90      		pop r9
 10102 00ac 8F90      		pop r8
 10103 00ae 7F90      		pop r7
 10104 00b0 6F90      		pop r6
 10105 00b2 5F90      		pop r5
 10106 00b4 4F90      		pop r4
 10107 00b6 3F90      		pop r3
 10108 00b8 2F90      		pop r2
 10109 00ba 0895      		ret
 10110               	.LFE28:
 10112               		.section	.text.fat_get_fs_free,"ax",@progbits
 10113               	.global	fat_get_fs_free
 10115               	fat_get_fs_free:
 10116               	.LFB29:
 10117               	.LSM657:
 10118               	.LVL453:
 10119 0000 2F92      		push r2
 10120 0002 3F92      		push r3
 10121 0004 4F92      		push r4
 10122 0006 5F92      		push r5
 10123 0008 6F92      		push r6
 10124 000a 7F92      		push r7
 10125 000c 8F92      		push r8
 10126 000e 9F92      		push r9
 10127 0010 AF92      		push r10
 10128 0012 BF92      		push r11
 10129 0014 CF92      		push r12
 10130 0016 DF92      		push r13
 10131 0018 EF92      		push r14
 10132 001a FF92      		push r15
 10133 001c 0F93      		push r16
 10134 001e 1F93      		push r17
 10135 0020 DF93      		push r29
 10136 0022 CF93      		push r28
 10137 0024 CDB7      		in r28,__SP_L__
 10138 0026 DEB7      		in r29,__SP_H__
 10139 0028 E097      		sbiw r28,48
 10140 002a 0FB6      		in __tmp_reg__,__SREG__
 10141 002c F894      		cli
 10142 002e DEBF      		out __SP_H__,r29
 10143 0030 0FBE      		out __SREG__,__tmp_reg__
 10144 0032 CDBF      		out __SP_L__,r28
 10145               	/* prologue: function */
 10146               	/* frame size = 48 */
 10147               	/* stack size = 66 */
 10148               	.L__stack_usage = 66
 10149 0034 1C01      		movw r2,r24
 10150               	.LSM658:
 10151 0036 0097      		sbiw r24,0
 10152 0038 01F4      		brne .+2
 10153 003a 00C0      		rjmp .L825
 10154               	.LVL454:
 10155               	.LSM659:
 10156 003c 1982      		std Y+1,__zero_reg__
 10157 003e 1A82      		std Y+2,__zero_reg__
 10158 0040 1B82      		std Y+3,__zero_reg__
 10159 0042 1C82      		std Y+4,__zero_reg__
 10160               	.LSM660:
 10161 0044 80E2      		ldi r24,lo8(32)
 10162 0046 90E0      		ldi r25,hi8(32)
 10163 0048 9E83      		std Y+6,r25
 10164 004a 8D83      		std Y+5,r24
 10165               	.LSM661:
 10166 004c D101      		movw r26,r2
 10167 004e 1A96      		adiw r26,10
 10168 0050 BC91      		ld r27,X
 10169 0052 B8A7      		std Y+40,r27
 10170 0054 F101      		movw r30,r2
 10171 0056 F385      		ldd r31,Z+11
 10172 0058 F9A7      		std Y+41,r31
 10173 005a D101      		movw r26,r2
 10174 005c 1C96      		adiw r26,12
 10175 005e BC91      		ld r27,X
 10176 0060 BAA7      		std Y+42,r27
 10177 0062 F101      		movw r30,r2
 10178 0064 F585      		ldd r31,Z+13
 10179 0066 FBA7      		std Y+43,r31
 10180 0068 D101      		movw r26,r2
 10181 006a 1E96      		adiw r26,14
 10182 006c BC91      		ld r27,X
 10183 006e BCA7      		std Y+44,r27
 10184 0070 F101      		movw r30,r2
 10185 0072 F785      		ldd r31,Z+15
 10186 0074 FDA7      		std Y+45,r31
 10187 0076 D101      		movw r26,r2
 10188 0078 5096      		adiw r26,16
 10189 007a BC91      		ld r27,X
 10190 007c BEA7      		std Y+46,r27
 10191 007e F101      		movw r30,r2
 10192 0080 F189      		ldd r31,Z+17
 10193 0082 FFA3      		std Y+39,r31
 10194               	.LVL455:
 10195               	.LSM662:
 10196 0084 D101      		movw r26,r2
 10197 0086 5296      		adiw r26,18
 10198 0088 4D90      		ld r4,X+
 10199 008a 5D90      		ld r5,X+
 10200 008c 6D90      		ld r6,X+
 10201 008e 7C90      		ld r7,X
 10202 0090 5597      		sbiw r26,18+3
 10203               	.LVL456:
 10204 0092 38AA      		std Y+48,r3
 10205 0094 2FA6      		std Y+47,r2
 10206               	.LSM663:
 10207 0096 00C0      		rjmp .L805
 10208               	.LVL457:
 10209               	.L821:
 10210               	.LBB76:
 10211               	.LSM664:
 10212 0098 BEEF      		ldi r27,lo8(65534)
 10213 009a 4B16      		cp r4,r27
 10214 009c BFEF      		ldi r27,hi8(65534)
 10215 009e 5B06      		cpc r5,r27
 10216 00a0 B0E0      		ldi r27,hlo8(65534)
 10217 00a2 6B06      		cpc r6,r27
 10218 00a4 B0E0      		ldi r27,hhi8(65534)
 10219 00a6 7B06      		cpc r7,r27
 10220 00a8 00F4      		brsh .L823
 10221               	.LSM665:
 10222 00aa 1201      		movw r2,r4
 10223               	.LVL458:
 10224 00ac 00C0      		rjmp .L806
 10225               	.LVL459:
 10226               	.L823:
 10227               	.LSM666:
 10228 00ae 8EEF      		ldi r24,lo8(-2)
 10229 00b0 282E      		mov r2,r24
 10230 00b2 8FEF      		ldi r24,hi8(-2)
 10231 00b4 382E      		mov r3,r24
 10232               	.LVL460:
 10233               	.L806:
 10234               	.LSM667:
 10235 00b6 AFA5      		ldd r26,Y+47
 10236 00b8 B8A9      		ldd r27,Y+48
 10237 00ba ED91      		ld r30,X+
 10238 00bc FC91      		ld r31,X
 10239 00be A281      		ldd r26,Z+2
 10240 00c0 B381      		ldd r27,Z+3
 10241 00c2 8085      		ldd r24,Z+8
 10242 00c4 8630      		cpi r24,lo8(6)
 10243 00c6 01F4      		brne .L824
 10244 00c8 E0E0      		ldi r30,lo8(gs(fat_get_fs_free_16_callback))
 10245 00ca F0E0      		ldi r31,hi8(gs(fat_get_fs_free_16_callback))
 10246 00cc 00C0      		rjmp .L807
 10247               	.L824:
 10248 00ce E0E0      		ldi r30,lo8(gs(fat_get_fs_free_32_callback))
 10249 00d0 F0E0      		ldi r31,hi8(gs(fat_get_fs_free_32_callback))
 10250               	.L807:
 10251               	.LSM668:
 10252 00d2 28A5      		ldd r18,Y+40
 10253 00d4 39A5      		ldd r19,Y+41
 10254 00d6 4AA5      		ldd r20,Y+42
 10255 00d8 5BA5      		ldd r21,Y+43
 10256 00da 6CA5      		ldd r22,Y+44
 10257 00dc 7DA5      		ldd r23,Y+45
 10258 00de 8EA5      		ldd r24,Y+46
 10259 00e0 9FA1      		ldd r25,Y+39
 10260 00e2 8E01      		movw r16,r28
 10261 00e4 095F      		subi r16,lo8(-(7))
 10262 00e6 1F4F      		sbci r17,hi8(-(7))
 10263 00e8 EE24      		clr r14
 10264 00ea FF24      		clr r15
 10265 00ec 6894      		set
 10266 00ee E5F8      		bld r14,5
 10267 00f0 6101      		movw r12,r2
 10268 00f2 5F01      		movw r10,r30
 10269 00f4 4E01      		movw r8,r28
 10270 00f6 0894      		sec
 10271 00f8 811C      		adc r8,__zero_reg__
 10272 00fa 911C      		adc r9,__zero_reg__
 10273 00fc FD01      		movw r30,r26
 10274 00fe 0995      		icall
 10275 0100 8823      		tst r24
 10276 0102 01F4      		brne .+2
 10277 0104 00C0      		rjmp .L825
 10278               	.LSM669:
 10279 0106 9101      		movw r18,r2
 10280 0108 40E0      		ldi r20,lo8(0)
 10281 010a 50E0      		ldi r21,hi8(0)
 10282 010c 60E0      		ldi r22,lo8(0)
 10283 010e 70E0      		ldi r23,hi8(0)
 10284 0110 CB01      		movw r24,r22
 10285 0112 F8A4      		ldd r15,Y+40
 10286 0114 F20C      		add r15,r2
 10287 0116 01E0      		ldi r16,lo8(1)
 10288 0118 B8A5      		ldd r27,Y+40
 10289 011a FB16      		cp r15,r27
 10290 011c 00F0      		brlo .L808
 10291 011e 00E0      		ldi r16,lo8(0)
 10292               	.L808:
 10293 0120 E9A5      		ldd r30,Y+41
 10294 0122 E30F      		add r30,r19
 10295 0124 11E0      		ldi r17,lo8(1)
 10296 0126 F9A5      		ldd r31,Y+41
 10297 0128 EF17      		cp r30,r31
 10298 012a 00F0      		brlo .L809
 10299 012c 10E0      		ldi r17,lo8(0)
 10300               	.L809:
 10301 012e 0E0F      		add r16,r30
 10302 0130 F1E0      		ldi r31,lo8(1)
 10303 0132 0E17      		cp r16,r30
 10304 0134 00F0      		brlo .L810
 10305 0136 F0E0      		ldi r31,lo8(0)
 10306               	.L810:
 10307 0138 1F2B      		or r17,r31
 10308 013a FAA5      		ldd r31,Y+42
 10309 013c F40F      		add r31,r20
 10310 013e E1E0      		ldi r30,lo8(1)
 10311 0140 CAA4      		ldd r12,Y+42
 10312 0142 FC15      		cp r31,r12
 10313 0144 00F0      		brlo .L811
 10314 0146 E0E0      		ldi r30,lo8(0)
 10315               	.L811:
 10316 0148 1F0F      		add r17,r31
 10317 014a A1E0      		ldi r26,lo8(1)
 10318 014c 1F17      		cp r17,r31
 10319 014e 00F0      		brlo .L812
 10320 0150 A0E0      		ldi r26,lo8(0)
 10321               	.L812:
 10322 0152 EA2B      		or r30,r26
 10323 0154 FBA5      		ldd r31,Y+43
 10324 0156 F50F      		add r31,r21
 10325 0158 B1E0      		ldi r27,lo8(1)
 10326 015a DBA4      		ldd r13,Y+43
 10327 015c FD15      		cp r31,r13
 10328 015e 00F0      		brlo .L813
 10329 0160 B0E0      		ldi r27,lo8(0)
 10330               	.L813:
 10331 0162 EE2E      		mov r14,r30
 10332 0164 EF0E      		add r14,r31
 10333 0166 E1E0      		ldi r30,lo8(1)
 10334 0168 EF16      		cp r14,r31
 10335 016a 00F0      		brlo .L814
 10336 016c E0E0      		ldi r30,lo8(0)
 10337               	.L814:
 10338 016e BE2B      		or r27,r30
 10339 0170 ECA5      		ldd r30,Y+44
 10340 0172 E60F      		add r30,r22
 10341 0174 A1E0      		ldi r26,lo8(1)
 10342 0176 FCA5      		ldd r31,Y+44
 10343 0178 EF17      		cp r30,r31
 10344 017a 00F0      		brlo .L815
 10345 017c A0E0      		ldi r26,lo8(0)
 10346               	.L815:
 10347 017e BE0F      		add r27,r30
 10348 0180 F1E0      		ldi r31,lo8(1)
 10349 0182 BE17      		cp r27,r30
 10350 0184 00F0      		brlo .L816
 10351 0186 F0E0      		ldi r31,lo8(0)
 10352               	.L816:
 10353 0188 AF2B      		or r26,r31
 10354 018a EDA5      		ldd r30,Y+45
 10355 018c E70F      		add r30,r23
 10356 018e F1E0      		ldi r31,lo8(1)
 10357 0190 CDA4      		ldd r12,Y+45
 10358 0192 EC15      		cp r30,r12
 10359 0194 00F0      		brlo .L817
 10360 0196 F0E0      		ldi r31,lo8(0)
 10361               	.L817:
 10362 0198 AE0F      		add r26,r30
 10363 019a DD24      		clr r13
 10364 019c D394      		inc r13
 10365 019e AE17      		cp r26,r30
 10366 01a0 00F0      		brlo .L818
 10367 01a2 DD24      		clr r13
 10368               	.L818:
 10369 01a4 FD29      		or r31,r13
 10370 01a6 DEA4      		ldd r13,Y+46
 10371 01a8 D80E      		add r13,r24
 10372 01aa E1E0      		ldi r30,lo8(1)
 10373 01ac CEA4      		ldd r12,Y+46
 10374 01ae DC14      		cp r13,r12
 10375 01b0 00F0      		brlo .L819
 10376 01b2 E0E0      		ldi r30,lo8(0)
 10377               	.L819:
 10378 01b4 FD0D      		add r31,r13
 10379 01b6 CC24      		clr r12
 10380 01b8 C394      		inc r12
 10381 01ba FD15      		cp r31,r13
 10382 01bc 00F0      		brlo .L820
 10383 01be CC24      		clr r12
 10384               	.L820:
 10385 01c0 EC29      		or r30,r12
 10386 01c2 DFA0      		ldd r13,Y+39
 10387 01c4 D90E      		add r13,r25
 10388 01c6 F8A6      		std Y+40,r15
 10389 01c8 09A7      		std Y+41,r16
 10390 01ca 1AA7      		std Y+42,r17
 10391 01cc EBA6      		std Y+43,r14
 10392 01ce BCA7      		std Y+44,r27
 10393 01d0 ADA7      		std Y+45,r26
 10394 01d2 FEA7      		std Y+46,r31
 10395 01d4 DE0E      		add r13,r30
 10396 01d6 DFA2      		std Y+39,r13
 10397               	.LVL461:
 10398               	.LSM670:
 10399 01d8 C101      		movw r24,r2
 10400 01da A0E0      		ldi r26,lo8(0)
 10401 01dc B0E0      		ldi r27,hi8(0)
 10402               	.LVL462:
 10403 01de 481A      		sub r4,r24
 10404 01e0 590A      		sbc r5,r25
 10405 01e2 6A0A      		sbc r6,r26
 10406 01e4 7B0A      		sbc r7,r27
 10407               	.LVL463:
 10408               	.L805:
 10409               	.LBE76:
 10410               	.LSM671:
 10411 01e6 4114      		cp r4,__zero_reg__
 10412 01e8 5104      		cpc r5,__zero_reg__
 10413 01ea 6104      		cpc r6,__zero_reg__
 10414 01ec 7104      		cpc r7,__zero_reg__
 10415 01ee 01F0      		breq .+2
 10416 01f0 00C0      		rjmp .L821
 10417 01f2 2FA4      		ldd r2,Y+47
 10418 01f4 38A8      		ldd r3,Y+48
 10419               	.LSM672:
 10420 01f6 D101      		movw r26,r2
 10421 01f8 5896      		adiw r26,24
 10422 01fa 4D91      		ld r20,X+
 10423 01fc 5C91      		ld r21,X
 10424 01fe 5997      		sbiw r26,24+1
 10425 0200 2980      		ldd r2,Y+1
 10426 0202 3A80      		ldd r3,Y+2
 10427 0204 4B80      		ldd r4,Y+3
 10428 0206 5C80      		ldd r5,Y+4
 10429 0208 9A01      		movw r18,r20
 10430 020a 40E0      		ldi r20,lo8(0)
 10431 020c 50E0      		ldi r21,lo8(0)
 10432 020e 60E0      		ldi r22,lo8(0)
 10433 0210 70E0      		ldi r23,lo8(0)
 10434 0212 80E0      		ldi r24,lo8(0)
 10435 0214 90E0      		ldi r25,lo8(0)
 10436 0216 5101      		movw r10,r2
 10437 0218 6201      		movw r12,r4
 10438 021a EE24      		clr r14
 10439 021c FF24      		clr r15
 10440 021e 00E0      		ldi r16,lo8(0)
 10441 0220 10E0      		ldi r17,lo8(0)
 10442 0222 0E94 0000 		call __muldi3
 10443 0226 00C0      		rjmp .L804
 10444               	.LVL464:
 10445               	.L825:
 10446               	.LBB77:
 10447               	.LSM673:
 10448 0228 20E0      		ldi r18,lo8(0)
 10449 022a 30E0      		ldi r19,lo8(0)
 10450 022c 40E0      		ldi r20,lo8(0)
 10451 022e 50E0      		ldi r21,lo8(0)
 10452 0230 60E0      		ldi r22,lo8(0)
 10453 0232 70E0      		ldi r23,lo8(0)
 10454 0234 80E0      		ldi r24,lo8(0)
 10455 0236 90E0      		ldi r25,lo8(0)
 10456               	.L804:
 10457               	/* epilogue start */
 10458               	.LBE77:
 10459               	.LSM674:
 10460 0238 E096      		adiw r28,48
 10461 023a 0FB6      		in __tmp_reg__,__SREG__
 10462 023c F894      		cli
 10463 023e DEBF      		out __SP_H__,r29
 10464 0240 0FBE      		out __SREG__,__tmp_reg__
 10465 0242 CDBF      		out __SP_L__,r28
 10466 0244 CF91      		pop r28
 10467 0246 DF91      		pop r29
 10468 0248 1F91      		pop r17
 10469 024a 0F91      		pop r16
 10470 024c FF90      		pop r15
 10471 024e EF90      		pop r14
 10472 0250 DF90      		pop r13
 10473 0252 CF90      		pop r12
 10474 0254 BF90      		pop r11
 10475 0256 AF90      		pop r10
 10476 0258 9F90      		pop r9
 10477 025a 8F90      		pop r8
 10478 025c 7F90      		pop r7
 10479 025e 6F90      		pop r6
 10480 0260 5F90      		pop r5
 10481 0262 4F90      		pop r4
 10482 0264 3F90      		pop r3
 10483 0266 2F90      		pop r2
 10484 0268 0895      		ret
 10485               	.LFE29:
 10487               		.data
 10490               	C.23.3238:
 10491 0000 01        		.byte	1
 10492 0001 03        		.byte	3
 10493 0002 05        		.byte	5
 10494 0003 07        		.byte	7
 10495 0004 09        		.byte	9
 10496 0005 0E        		.byte	14
 10497 0006 10        		.byte	16
 10498 0007 12        		.byte	18
 10499 0008 14        		.byte	20
 10500 0009 16        		.byte	22
 10501 000a 18        		.byte	24
 10502 000b 1C        		.byte	28
 10503 000c 1E        		.byte	30
 10504               		.lcomm fat_dir_handles,114
 10505               		.lcomm fat_file_handles,63
 10506               		.lcomm fat_fs_handles,46
 10755               	.Letext0:
DEFINED SYMBOLS
                            *ABS*:0000000000000000 fat.c
     /tmp/ccTHxfKB.s:2      *ABS*:000000000000003f __SREG__
     /tmp/ccTHxfKB.s:3      *ABS*:000000000000003e __SP_H__
     /tmp/ccTHxfKB.s:4      *ABS*:000000000000003d __SP_L__
     /tmp/ccTHxfKB.s:5      *ABS*:0000000000000034 __CCP__
     /tmp/ccTHxfKB.s:6      *ABS*:0000000000000000 __tmp_reg__
     /tmp/ccTHxfKB.s:7      *ABS*:0000000000000001 __zero_reg__
     /tmp/ccTHxfKB.s:18     .text.fat_get_next_cluster:0000000000000000 fat_get_next_cluster
     /tmp/ccTHxfKB.s:460    .text.fat_free_clusters:0000000000000000 fat_free_clusters
     /tmp/ccTHxfKB.s:1019   .text.fat_append_clusters:0000000000000000 fat_append_clusters
     /tmp/ccTHxfKB.s:1984   .text.fat_clear_cluster_callback:0000000000000000 fat_clear_cluster_callback
     /tmp/ccTHxfKB.s:2002   .text.fat_cluster_offset:0000000000000000 fat_cluster_offset
     /tmp/ccTHxfKB.s:2210   .text.fat_dir_entry_read_callback:0000000000000000 fat_dir_entry_read_callback
     /tmp/ccTHxfKB.s:10490  .data:0000000000000000 C.23.3238
     /tmp/ccTHxfKB.s:2647   .text.fat_get_fs_free_16_callback:0000000000000000 fat_get_fs_free_16_callback
     /tmp/ccTHxfKB.s:2721   .text.fat_get_fs_free_32_callback:0000000000000000 fat_get_fs_free_32_callback
     /tmp/ccTHxfKB.s:2801   .text.fat_clear_cluster:0000000000000000 fat_clear_cluster
     /tmp/ccTHxfKB.s:2899   .text.fat_write_dir_entry:0000000000000000 fat_write_dir_entry
     /tmp/ccTHxfKB.s:3560   .text.fat_find_offset_for_dir_entry.clone.0:0000000000000000 fat_find_offset_for_dir_entry.clone.0
     /tmp/ccTHxfKB.s:4342   .text.fat_open:0000000000000000 fat_open
     /tmp/ccTHxfKB.s:10505  .bss:00000000000000b1 fat_fs_handles
     /tmp/ccTHxfKB.s:5441   .text.fat_close:0000000000000000 fat_close
     /tmp/ccTHxfKB.s:5463   .text.fat_open_file:0000000000000000 fat_open_file
     /tmp/ccTHxfKB.s:10504  .bss:0000000000000072 fat_file_handles
     /tmp/ccTHxfKB.s:5555   .text.fat_close_file:0000000000000000 fat_close_file
     /tmp/ccTHxfKB.s:5577   .text.fat_read_file:0000000000000000 fat_read_file
     /tmp/ccTHxfKB.s:6431   .text.fat_write_file:0000000000000000 fat_write_file
     /tmp/ccTHxfKB.s:7394   .text.fat_resize_file:0000000000000000 fat_resize_file
     /tmp/ccTHxfKB.s:8167   .text.fat_seek_file:0000000000000000 fat_seek_file
     /tmp/ccTHxfKB.s:8319   .text.fat_open_dir:0000000000000000 fat_open_dir
                             .bss:0000000000000000 fat_dir_handles
     /tmp/ccTHxfKB.s:8418   .text.fat_close_dir:0000000000000000 fat_close_dir
     /tmp/ccTHxfKB.s:8440   .text.fat_read_dir:0000000000000000 fat_read_dir
     /tmp/ccTHxfKB.s:8791   .text.fat_get_dir_entry_of_path:0000000000000000 fat_get_dir_entry_of_path
     /tmp/ccTHxfKB.s:9004   .text.fat_reset_dir:0000000000000000 fat_reset_dir
     /tmp/ccTHxfKB.s:9042   .text.fat_create_file:0000000000000000 fat_create_file
     /tmp/ccTHxfKB.s:9180   .text.fat_delete_file:0000000000000000 fat_delete_file
     /tmp/ccTHxfKB.s:9443   .text.fat_create_dir:0000000000000000 fat_create_dir
     /tmp/ccTHxfKB.s:9993   .text.fat_get_fs_size:0000000000000000 fat_get_fs_size
     /tmp/ccTHxfKB.s:10115  .text.fat_get_fs_free:0000000000000000 fat_get_fs_free

UNDEFINED SYMBOLS
__muldi3
__divmodhi4
memset
strrchr
memcpy
__udivmodhi4
__ashldi3
__mulsi3
__udivmodsi4
strchr
strncmp
strcmp
strncpy
__do_copy_data
__do_clear_bss
